ARM GAS  /tmp/ccUmtDkv.s 			page 1


   1              		.syntax unified
   2              		.cpu cortex-m4
   3              		.eabi_attribute 27, 1
   4              		.eabi_attribute 28, 1
   5              		.fpu fpv4-sp-d16
   6              		.eabi_attribute 20, 1
   7              		.eabi_attribute 21, 1
   8              		.eabi_attribute 23, 3
   9              		.eabi_attribute 24, 1
  10              		.eabi_attribute 25, 1
  11              		.eabi_attribute 26, 1
  12              		.eabi_attribute 30, 1
  13              		.eabi_attribute 34, 1
  14              		.eabi_attribute 18, 4
  15              		.thumb
  16              		.syntax unified
  17              		.file	"gpio.c"
  18              		.text
  19              	.Ltext0:
  20              		.cfi_sections	.debug_frame
  21              		.section	.text.MX_GPIO_Init,"ax",%progbits
  22              		.align	2
  23              		.global	MX_GPIO_Init
  24              		.thumb
  25              		.thumb_func
  27              	MX_GPIO_Init:
  28              	.LFB124:
  29              		.file 1 "Src/gpio.c"
   1:Src/gpio.c    **** /* Includes ------------------------------------------------------------------*/
   2:Src/gpio.c    **** #include "gpio.h"
   3:Src/gpio.c    **** /* USER CODE BEGIN 0 */
   4:Src/gpio.c    **** 
   5:Src/gpio.c    **** /* USER CODE END 0 */
   6:Src/gpio.c    **** 
   7:Src/gpio.c    **** /*----------------------------------------------------------------------------*/
   8:Src/gpio.c    **** /* Configure GPIO                                                             */
   9:Src/gpio.c    **** /*----------------------------------------------------------------------------*/
  10:Src/gpio.c    **** /* USER CODE BEGIN 1 */
  11:Src/gpio.c    **** 
  12:Src/gpio.c    **** /* USER CODE END 1 */
  13:Src/gpio.c    **** 
  14:Src/gpio.c    **** /** Configure pins as
  15:Src/gpio.c    ****  * Analog
  16:Src/gpio.c    ****  * Input
  17:Src/gpio.c    ****  * Output
  18:Src/gpio.c    ****  * EVENT_OUT
  19:Src/gpio.c    ****  * EXTI
  20:Src/gpio.c    ****  * Free pins are configured automatically as Analog (this feature is enabled through
  21:Src/gpio.c    ****  * the Code Generation settings)
  22:Src/gpio.c    ****  */
  23:Src/gpio.c    **** void MX_GPIO_Init(void)
  24:Src/gpio.c    **** {
  30              		.loc 1 24 0
  31              		.cfi_startproc
  32              		@ args = 0, pretend = 0, frame = 48
  33              		@ frame_needed = 0, uses_anonymous_args = 0
  34 0000 2DE9F04F 		push	{r4, r5, r6, r7, r8, r9, r10, fp, lr}
ARM GAS  /tmp/ccUmtDkv.s 			page 2


  35              	.LCFI0:
  36              		.cfi_def_cfa_offset 36
  37              		.cfi_offset 4, -36
  38              		.cfi_offset 5, -32
  39              		.cfi_offset 6, -28
  40              		.cfi_offset 7, -24
  41              		.cfi_offset 8, -20
  42              		.cfi_offset 9, -16
  43              		.cfi_offset 10, -12
  44              		.cfi_offset 11, -8
  45              		.cfi_offset 14, -4
  46 0004 8DB0     		sub	sp, sp, #52
  47              	.LCFI1:
  48              		.cfi_def_cfa_offset 88
  49              	.LBB2:
  25:Src/gpio.c    **** 
  26:Src/gpio.c    ****   GPIO_InitTypeDef GPIO_InitStruct;
  27:Src/gpio.c    **** 
  28:Src/gpio.c    ****   /* GPIO Ports Clock Enable */
  29:Src/gpio.c    ****   __HAL_RCC_GPIOE_CLK_ENABLE();
  50              		.loc 1 29 0
  51 0006 744B     		ldr	r3, .L3
  52 0008 5A69     		ldr	r2, [r3, #20]
  53 000a 42F40012 		orr	r2, r2, #2097152
  54 000e 5A61     		str	r2, [r3, #20]
  55 0010 5A69     		ldr	r2, [r3, #20]
  56 0012 02F40012 		and	r2, r2, #2097152
  57 0016 0192     		str	r2, [sp, #4]
  58 0018 019A     		ldr	r2, [sp, #4]
  59              	.LBE2:
  60              	.LBB3:
  30:Src/gpio.c    ****   __HAL_RCC_GPIOC_CLK_ENABLE();
  61              		.loc 1 30 0
  62 001a 5A69     		ldr	r2, [r3, #20]
  63 001c 42F40022 		orr	r2, r2, #524288
  64 0020 5A61     		str	r2, [r3, #20]
  65 0022 5A69     		ldr	r2, [r3, #20]
  66 0024 02F40022 		and	r2, r2, #524288
  67 0028 0292     		str	r2, [sp, #8]
  68 002a 029A     		ldr	r2, [sp, #8]
  69              	.LBE3:
  70              	.LBB4:
  31:Src/gpio.c    ****   __HAL_RCC_GPIOF_CLK_ENABLE();
  71              		.loc 1 31 0
  72 002c 5A69     		ldr	r2, [r3, #20]
  73 002e 42F48002 		orr	r2, r2, #4194304
  74 0032 5A61     		str	r2, [r3, #20]
  75 0034 5A69     		ldr	r2, [r3, #20]
  76 0036 02F48002 		and	r2, r2, #4194304
  77 003a 0392     		str	r2, [sp, #12]
  78 003c 039A     		ldr	r2, [sp, #12]
  79              	.LBE4:
  80              	.LBB5:
  32:Src/gpio.c    ****   __HAL_RCC_GPIOA_CLK_ENABLE();
  81              		.loc 1 32 0
  82 003e 5A69     		ldr	r2, [r3, #20]
  83 0040 42F40032 		orr	r2, r2, #131072
ARM GAS  /tmp/ccUmtDkv.s 			page 3


  84 0044 5A61     		str	r2, [r3, #20]
  85 0046 5A69     		ldr	r2, [r3, #20]
  86 0048 02F40032 		and	r2, r2, #131072
  87 004c 0492     		str	r2, [sp, #16]
  88 004e 049A     		ldr	r2, [sp, #16]
  89              	.LBE5:
  90              	.LBB6:
  33:Src/gpio.c    ****   __HAL_RCC_GPIOB_CLK_ENABLE();
  91              		.loc 1 33 0
  92 0050 5A69     		ldr	r2, [r3, #20]
  93 0052 42F48022 		orr	r2, r2, #262144
  94 0056 5A61     		str	r2, [r3, #20]
  95 0058 5A69     		ldr	r2, [r3, #20]
  96 005a 02F48022 		and	r2, r2, #262144
  97 005e 0592     		str	r2, [sp, #20]
  98 0060 059A     		ldr	r2, [sp, #20]
  99              	.LBE6:
 100              	.LBB7:
  34:Src/gpio.c    ****   __HAL_RCC_GPIOD_CLK_ENABLE();
 101              		.loc 1 34 0
 102 0062 5A69     		ldr	r2, [r3, #20]
 103 0064 42F48012 		orr	r2, r2, #1048576
 104 0068 5A61     		str	r2, [r3, #20]
 105 006a 5B69     		ldr	r3, [r3, #20]
 106 006c 03F48013 		and	r3, r3, #1048576
 107 0070 0693     		str	r3, [sp, #24]
 108 0072 069B     		ldr	r3, [sp, #24]
 109              	.LBE7:
  35:Src/gpio.c    **** 
  36:Src/gpio.c    ****   /*Configure GPIO pin Output Level */
  37:Src/gpio.c    ****   HAL_GPIO_WritePin(GPIOE, CS_I2C_SPI_Pin|LD4_Pin|LD3_Pin|LD5_Pin
 110              		.loc 1 37 0
 111 0074 DFF86C91 		ldr	r9, .L3+12
 112 0078 0022     		movs	r2, #0
 113 007a 4FF60871 		movw	r1, #65288
 114 007e 4846     		mov	r0, r9
 115 0080 FFF7FEFF 		bl	HAL_GPIO_WritePin
 116              	.LVL0:
  38:Src/gpio.c    ****                           |LD7_Pin|LD9_Pin|LD10_Pin|LD8_Pin
  39:Src/gpio.c    ****                           |LD6_Pin, GPIO_PIN_RESET);
  40:Src/gpio.c    **** 
  41:Src/gpio.c    ****   /*Configure GPIO pin Output Level */
  42:Src/gpio.c    ****   HAL_GPIO_WritePin(GPIOC, M4_A_Pin|M4_B_Pin, GPIO_PIN_RESET);
 117              		.loc 1 42 0
 118 0084 DFF860A1 		ldr	r10, .L3+16
 119 0088 0022     		movs	r2, #0
 120 008a 0321     		movs	r1, #3
 121 008c 5046     		mov	r0, r10
 122 008e FFF7FEFF 		bl	HAL_GPIO_WritePin
 123              	.LVL1:
  43:Src/gpio.c    **** 
  44:Src/gpio.c    ****   /*Configure GPIO pin Output Level */
  45:Src/gpio.c    ****   HAL_GPIO_WritePin(GPIOB, CLICK_RST_Pin|SPI2_KLICK_CS_Pin|M3_B_Pin|M3_A_Pin, GPIO_PIN_RESET);
 124              		.loc 1 45 0
 125 0092 524F     		ldr	r7, .L3+4
 126 0094 0022     		movs	r2, #0
 127 0096 42F20231 		movw	r1, #8962
ARM GAS  /tmp/ccUmtDkv.s 			page 4


 128 009a 3846     		mov	r0, r7
 129 009c FFF7FEFF 		bl	HAL_GPIO_WritePin
 130              	.LVL2:
  46:Src/gpio.c    **** 
  47:Src/gpio.c    ****   /*Configure GPIO pin Output Level */
  48:Src/gpio.c    ****   HAL_GPIO_WritePin(GPIOD, M1_B_Pin|M1_A_Pin|M2_B_Pin|M2_A_Pin, GPIO_PIN_RESET);
 131              		.loc 1 48 0
 132 00a0 DFF84881 		ldr	r8, .L3+20
 133 00a4 0022     		movs	r2, #0
 134 00a6 4CF2C001 		movw	r1, #49344
 135 00aa 4046     		mov	r0, r8
 136 00ac FFF7FEFF 		bl	HAL_GPIO_WritePin
 137              	.LVL3:
  49:Src/gpio.c    **** 
  50:Src/gpio.c    ****   /*Configure GPIO pins : DRDY_Pin MEMS_INT3_Pin MEMS_INT4_Pin MEMS_INT1_Pin
  51:Src/gpio.c    ****                            MEMS_INT2_Pin */
  52:Src/gpio.c    ****   GPIO_InitStruct.Pin = DRDY_Pin|MEMS_INT3_Pin|MEMS_INT4_Pin|MEMS_INT1_Pin
 138              		.loc 1 52 0
 139 00b0 3723     		movs	r3, #55
 140 00b2 0793     		str	r3, [sp, #28]
  53:Src/gpio.c    ****                           |MEMS_INT2_Pin;
  54:Src/gpio.c    ****   GPIO_InitStruct.Mode = GPIO_MODE_EVT_RISING;
 141              		.loc 1 54 0
 142 00b4 4A4B     		ldr	r3, .L3+8
 143 00b6 0893     		str	r3, [sp, #32]
  55:Src/gpio.c    ****   GPIO_InitStruct.Pull = GPIO_NOPULL;
 144              		.loc 1 55 0
 145 00b8 0024     		movs	r4, #0
 146 00ba 0994     		str	r4, [sp, #36]
  56:Src/gpio.c    ****   HAL_GPIO_Init(GPIOE, &GPIO_InitStruct);
 147              		.loc 1 56 0
 148 00bc 07A9     		add	r1, sp, #28
 149 00be 4846     		mov	r0, r9
 150 00c0 FFF7FEFF 		bl	HAL_GPIO_Init
 151              	.LVL4:
  57:Src/gpio.c    **** 
  58:Src/gpio.c    ****   /*Configure GPIO pins : CS_I2C_SPI_Pin LD4_Pin LD3_Pin LD5_Pin
  59:Src/gpio.c    ****                            LD7_Pin LD9_Pin LD10_Pin LD8_Pin
  60:Src/gpio.c    ****                            LD6_Pin */
  61:Src/gpio.c    ****   GPIO_InitStruct.Pin = CS_I2C_SPI_Pin|LD4_Pin|LD3_Pin|LD5_Pin
 152              		.loc 1 61 0
 153 00c4 4FF60873 		movw	r3, #65288
 154 00c8 0793     		str	r3, [sp, #28]
  62:Src/gpio.c    ****                           |LD7_Pin|LD9_Pin|LD10_Pin|LD8_Pin
  63:Src/gpio.c    ****                           |LD6_Pin;
  64:Src/gpio.c    ****   GPIO_InitStruct.Mode = GPIO_MODE_OUTPUT_PP;
 155              		.loc 1 64 0
 156 00ca 0125     		movs	r5, #1
 157 00cc 0895     		str	r5, [sp, #32]
  65:Src/gpio.c    ****   GPIO_InitStruct.Pull = GPIO_NOPULL;
 158              		.loc 1 65 0
 159 00ce 0994     		str	r4, [sp, #36]
  66:Src/gpio.c    ****   GPIO_InitStruct.Speed = GPIO_SPEED_FREQ_LOW;
 160              		.loc 1 66 0
 161 00d0 0A94     		str	r4, [sp, #40]
  67:Src/gpio.c    ****   HAL_GPIO_Init(GPIOE, &GPIO_InitStruct);
 162              		.loc 1 67 0
ARM GAS  /tmp/ccUmtDkv.s 			page 5


 163 00d2 07A9     		add	r1, sp, #28
 164 00d4 4846     		mov	r0, r9
 165 00d6 FFF7FEFF 		bl	HAL_GPIO_Init
 166              	.LVL5:
  68:Src/gpio.c    **** 
  69:Src/gpio.c    ****   /*Configure GPIO pins : M4_A_Pin M4_B_Pin */
  70:Src/gpio.c    ****   GPIO_InitStruct.Pin = M4_A_Pin|M4_B_Pin;
 167              		.loc 1 70 0
 168 00da 4FF0030B 		mov	fp, #3
 169 00de CDF81CB0 		str	fp, [sp, #28]
  71:Src/gpio.c    ****   GPIO_InitStruct.Mode = GPIO_MODE_OUTPUT_PP;
 170              		.loc 1 71 0
 171 00e2 0895     		str	r5, [sp, #32]
  72:Src/gpio.c    ****   GPIO_InitStruct.Pull = GPIO_NOPULL;
 172              		.loc 1 72 0
 173 00e4 0994     		str	r4, [sp, #36]
  73:Src/gpio.c    ****   GPIO_InitStruct.Speed = GPIO_SPEED_FREQ_LOW;
 174              		.loc 1 73 0
 175 00e6 0A94     		str	r4, [sp, #40]
  74:Src/gpio.c    ****   HAL_GPIO_Init(GPIOC, &GPIO_InitStruct);
 176              		.loc 1 74 0
 177 00e8 07A9     		add	r1, sp, #28
 178 00ea 5046     		mov	r0, r10
 179 00ec FFF7FEFF 		bl	HAL_GPIO_Init
 180              	.LVL6:
  75:Src/gpio.c    **** 
  76:Src/gpio.c    ****   /*Configure GPIO pin : B1_Pin */
  77:Src/gpio.c    ****   GPIO_InitStruct.Pin = B1_Pin;
 181              		.loc 1 77 0
 182 00f0 0795     		str	r5, [sp, #28]
  78:Src/gpio.c    ****   GPIO_InitStruct.Mode = GPIO_MODE_INPUT;
 183              		.loc 1 78 0
 184 00f2 0894     		str	r4, [sp, #32]
  79:Src/gpio.c    ****   GPIO_InitStruct.Pull = GPIO_NOPULL;
 185              		.loc 1 79 0
 186 00f4 0994     		str	r4, [sp, #36]
  80:Src/gpio.c    ****   HAL_GPIO_Init(B1_GPIO_Port, &GPIO_InitStruct);
 187              		.loc 1 80 0
 188 00f6 07A9     		add	r1, sp, #28
 189 00f8 4FF09040 		mov	r0, #1207959552
 190 00fc FFF7FEFF 		bl	HAL_GPIO_Init
 191              	.LVL7:
  81:Src/gpio.c    **** 
  82:Src/gpio.c    ****   /*Configure GPIO pin : CLICK_INT_Pin */
  83:Src/gpio.c    ****   GPIO_InitStruct.Pin = CLICK_INT_Pin;
 192              		.loc 1 83 0
 193 0100 0795     		str	r5, [sp, #28]
  84:Src/gpio.c    ****   GPIO_InitStruct.Mode = GPIO_MODE_INPUT;
 194              		.loc 1 84 0
 195 0102 0894     		str	r4, [sp, #32]
  85:Src/gpio.c    ****   GPIO_InitStruct.Pull = GPIO_NOPULL;
 196              		.loc 1 85 0
 197 0104 0994     		str	r4, [sp, #36]
  86:Src/gpio.c    ****   HAL_GPIO_Init(CLICK_INT_GPIO_Port, &GPIO_InitStruct);
 198              		.loc 1 86 0
 199 0106 07A9     		add	r1, sp, #28
 200 0108 3846     		mov	r0, r7
ARM GAS  /tmp/ccUmtDkv.s 			page 6


 201 010a FFF7FEFF 		bl	HAL_GPIO_Init
 202              	.LVL8:
  87:Src/gpio.c    **** 
  88:Src/gpio.c    ****   /*Configure GPIO pins : CLICK_RST_Pin SPI2_KLICK_CS_Pin M3_B_Pin M3_A_Pin */
  89:Src/gpio.c    ****   GPIO_InitStruct.Pin = CLICK_RST_Pin|SPI2_KLICK_CS_Pin|M3_B_Pin|M3_A_Pin;
 203              		.loc 1 89 0
 204 010e 42F20233 		movw	r3, #8962
 205 0112 0793     		str	r3, [sp, #28]
  90:Src/gpio.c    ****   GPIO_InitStruct.Mode = GPIO_MODE_OUTPUT_PP;
 206              		.loc 1 90 0
 207 0114 0895     		str	r5, [sp, #32]
  91:Src/gpio.c    ****   GPIO_InitStruct.Pull = GPIO_NOPULL;
 208              		.loc 1 91 0
 209 0116 0994     		str	r4, [sp, #36]
  92:Src/gpio.c    ****   GPIO_InitStruct.Speed = GPIO_SPEED_FREQ_LOW;
 210              		.loc 1 92 0
 211 0118 0A94     		str	r4, [sp, #40]
  93:Src/gpio.c    ****   HAL_GPIO_Init(GPIOB, &GPIO_InitStruct);
 212              		.loc 1 93 0
 213 011a 07A9     		add	r1, sp, #28
 214 011c 3846     		mov	r0, r7
 215 011e FFF7FEFF 		bl	HAL_GPIO_Init
 216              	.LVL9:
  94:Src/gpio.c    **** 
  95:Src/gpio.c    ****   /*Configure GPIO pins : M1_B_Pin M1_A_Pin M2_B_Pin M2_A_Pin */
  96:Src/gpio.c    ****   GPIO_InitStruct.Pin = M1_B_Pin|M1_A_Pin|M2_B_Pin|M2_A_Pin;
 217              		.loc 1 96 0
 218 0122 4CF2C003 		movw	r3, #49344
 219 0126 0793     		str	r3, [sp, #28]
  97:Src/gpio.c    ****   GPIO_InitStruct.Mode = GPIO_MODE_OUTPUT_PP;
 220              		.loc 1 97 0
 221 0128 0895     		str	r5, [sp, #32]
  98:Src/gpio.c    ****   GPIO_InitStruct.Pull = GPIO_NOPULL;
 222              		.loc 1 98 0
 223 012a 0994     		str	r4, [sp, #36]
  99:Src/gpio.c    ****   GPIO_InitStruct.Speed = GPIO_SPEED_FREQ_LOW;
 224              		.loc 1 99 0
 225 012c 0A94     		str	r4, [sp, #40]
 100:Src/gpio.c    ****   HAL_GPIO_Init(GPIOD, &GPIO_InitStruct);
 226              		.loc 1 100 0
 227 012e 07A9     		add	r1, sp, #28
 228 0130 4046     		mov	r0, r8
 229 0132 FFF7FEFF 		bl	HAL_GPIO_Init
 230              	.LVL10:
 101:Src/gpio.c    **** 
 102:Src/gpio.c    **** 	/*Configure GPIO pin : PD0/PD1   CAN RX/TX */
 103:Src/gpio.c    **** 	GPIO_InitStruct.Pin = GPIO_PIN_1 | GPIO_PIN_0;
 231              		.loc 1 103 0
 232 0136 CDF81CB0 		str	fp, [sp, #28]
 104:Src/gpio.c    **** 	GPIO_InitStruct.Mode = GPIO_MODE_AF_PP;
 233              		.loc 1 104 0
 234 013a 0226     		movs	r6, #2
 235 013c 0896     		str	r6, [sp, #32]
 105:Src/gpio.c    **** 	GPIO_InitStruct.Pull = GPIO_NOPULL;
 236              		.loc 1 105 0
 237 013e 0994     		str	r4, [sp, #36]
 106:Src/gpio.c    **** 	GPIO_InitStruct.Speed = GPIO_SPEED_FREQ_HIGH;
ARM GAS  /tmp/ccUmtDkv.s 			page 7


 238              		.loc 1 106 0
 239 0140 CDF828B0 		str	fp, [sp, #40]
 107:Src/gpio.c    **** 	//GPIO_InitStruct.Alternate = GPIO_;
 108:Src/gpio.c    **** 	HAL_GPIO_Init(GPIOD, &GPIO_InitStruct);
 240              		.loc 1 108 0
 241 0144 07A9     		add	r1, sp, #28
 242 0146 4046     		mov	r0, r8
 243 0148 FFF7FEFF 		bl	HAL_GPIO_Init
 244              	.LVL11:
 109:Src/gpio.c    **** 
 110:Src/gpio.c    **** 	/*Configure GPIO pin : PC2   triggs 1st sensor */
 111:Src/gpio.c    **** 	GPIO_InitStruct.Pin = GPIO_PIN_2;
 245              		.loc 1 111 0
 246 014c 0423     		movs	r3, #4
 247 014e 0793     		str	r3, [sp, #28]
 112:Src/gpio.c    **** 	GPIO_InitStruct.Mode = GPIO_MODE_OUTPUT_PP;
 248              		.loc 1 112 0
 249 0150 0895     		str	r5, [sp, #32]
 113:Src/gpio.c    **** 	GPIO_InitStruct.Pull = GPIO_PULLDOWN;
 250              		.loc 1 113 0
 251 0152 0996     		str	r6, [sp, #36]
 114:Src/gpio.c    **** 	GPIO_InitStruct.Speed = GPIO_SPEED_FREQ_MEDIUM;
 252              		.loc 1 114 0
 253 0154 0A95     		str	r5, [sp, #40]
 115:Src/gpio.c    **** 	//GPIO_InitStruct.Alternate = GPIO_;
 116:Src/gpio.c    **** 	HAL_GPIO_Init(GPIOC, &GPIO_InitStruct);
 254              		.loc 1 116 0
 255 0156 07A9     		add	r1, sp, #28
 256 0158 5046     		mov	r0, r10
 257 015a FFF7FEFF 		bl	HAL_GPIO_Init
 258              	.LVL12:
 117:Src/gpio.c    **** 
 118:Src/gpio.c    **** 	/*Configure GPIO pin : PC3,    echos 1st sensor */
 119:Src/gpio.c    **** 	GPIO_InitStruct.Pin = GPIO_PIN_3;
 259              		.loc 1 119 0
 260 015e 0823     		movs	r3, #8
 261 0160 0793     		str	r3, [sp, #28]
 120:Src/gpio.c    **** 	GPIO_InitStruct.Mode =GPIO_MODE_INPUT;
 262              		.loc 1 120 0
 263 0162 0894     		str	r4, [sp, #32]
 121:Src/gpio.c    **** 	GPIO_InitStruct.Pull = GPIO_PULLDOWN;
 264              		.loc 1 121 0
 265 0164 0996     		str	r6, [sp, #36]
 122:Src/gpio.c    **** 	GPIO_InitStruct.Speed = GPIO_SPEED_FREQ_MEDIUM;
 266              		.loc 1 122 0
 267 0166 0A95     		str	r5, [sp, #40]
 123:Src/gpio.c    **** 	//GPIO_InitStruct.Alternate = GPIO_;
 124:Src/gpio.c    **** 	HAL_GPIO_Init(GPIOC, &GPIO_InitStruct);
 268              		.loc 1 124 0
 269 0168 07A9     		add	r1, sp, #28
 270 016a 5046     		mov	r0, r10
 271 016c FFF7FEFF 		bl	HAL_GPIO_Init
 272              	.LVL13:
 125:Src/gpio.c    **** 
 126:Src/gpio.c    **** 	/*Configure GPIO pin : PD10   triggs 2nd sensor */
 127:Src/gpio.c    **** 	GPIO_InitStruct.Pin = GPIO_PIN_10;
 273              		.loc 1 127 0
ARM GAS  /tmp/ccUmtDkv.s 			page 8


 274 0170 4FF48063 		mov	r3, #1024
 275 0174 0793     		str	r3, [sp, #28]
 128:Src/gpio.c    **** 	GPIO_InitStruct.Mode = GPIO_MODE_OUTPUT_PP;
 276              		.loc 1 128 0
 277 0176 0895     		str	r5, [sp, #32]
 129:Src/gpio.c    **** 	GPIO_InitStruct.Pull = GPIO_PULLDOWN;
 278              		.loc 1 129 0
 279 0178 0996     		str	r6, [sp, #36]
 130:Src/gpio.c    **** 	GPIO_InitStruct.Speed = GPIO_SPEED_FREQ_MEDIUM;
 280              		.loc 1 130 0
 281 017a 0A95     		str	r5, [sp, #40]
 131:Src/gpio.c    **** 	//GPIO_InitStruct.Alternate = GPIO_;
 132:Src/gpio.c    **** 	HAL_GPIO_Init(GPIOD, &GPIO_InitStruct);
 282              		.loc 1 132 0
 283 017c 07A9     		add	r1, sp, #28
 284 017e 4046     		mov	r0, r8
 285 0180 FFF7FEFF 		bl	HAL_GPIO_Init
 286              	.LVL14:
 133:Src/gpio.c    **** 
 134:Src/gpio.c    **** 	/*Configure GPIO pin : PD11    echos 2nd sensor */
 135:Src/gpio.c    **** 	GPIO_InitStruct.Pin = GPIO_PIN_11;
 287              		.loc 1 135 0
 288 0184 4FF4006A 		mov	r10, #2048
 289 0188 CDF81CA0 		str	r10, [sp, #28]
 136:Src/gpio.c    **** 	GPIO_InitStruct.Mode =GPIO_MODE_INPUT;
 290              		.loc 1 136 0
 291 018c 0894     		str	r4, [sp, #32]
 137:Src/gpio.c    **** 	GPIO_InitStruct.Pull = GPIO_PULLDOWN;
 292              		.loc 1 137 0
 293 018e 0996     		str	r6, [sp, #36]
 138:Src/gpio.c    **** 	GPIO_InitStruct.Speed = GPIO_SPEED_FREQ_MEDIUM;
 294              		.loc 1 138 0
 295 0190 0A95     		str	r5, [sp, #40]
 139:Src/gpio.c    **** 	//GPIO_InitStruct.Alternate = GPIO_;
 140:Src/gpio.c    **** 	HAL_GPIO_Init(GPIOD, &GPIO_InitStruct);
 296              		.loc 1 140 0
 297 0192 07A9     		add	r1, sp, #28
 298 0194 4046     		mov	r0, r8
 299 0196 FFF7FEFF 		bl	HAL_GPIO_Init
 300              	.LVL15:
 141:Src/gpio.c    **** 
 142:Src/gpio.c    **** 	/*Configure GPIO pin : PB10, PB2   triggs 3rd, 4th sensor */
 143:Src/gpio.c    **** 	GPIO_InitStruct.Pin = GPIO_PIN_10 | GPIO_PIN_2;
 301              		.loc 1 143 0
 302 019a 40F20443 		movw	r3, #1028
 303 019e 0793     		str	r3, [sp, #28]
 144:Src/gpio.c    **** 	GPIO_InitStruct.Mode = GPIO_MODE_OUTPUT_PP;
 304              		.loc 1 144 0
 305 01a0 0895     		str	r5, [sp, #32]
 145:Src/gpio.c    **** 	GPIO_InitStruct.Pull = GPIO_PULLDOWN;
 306              		.loc 1 145 0
 307 01a2 0996     		str	r6, [sp, #36]
 146:Src/gpio.c    **** 	GPIO_InitStruct.Speed = GPIO_SPEED_FREQ_MEDIUM;
 308              		.loc 1 146 0
 309 01a4 0A95     		str	r5, [sp, #40]
 147:Src/gpio.c    **** 	//GPIO_InitStruct.Alternate = GPIO_;
 148:Src/gpio.c    **** 	HAL_GPIO_Init(GPIOB, &GPIO_InitStruct);
ARM GAS  /tmp/ccUmtDkv.s 			page 9


 310              		.loc 1 148 0
 311 01a6 07A9     		add	r1, sp, #28
 312 01a8 3846     		mov	r0, r7
 313 01aa FFF7FEFF 		bl	HAL_GPIO_Init
 314              	.LVL16:
 149:Src/gpio.c    **** 
 150:Src/gpio.c    **** 	/*Configure GPIO pin : PB11    echos 3rd sensor */
 151:Src/gpio.c    **** 	GPIO_InitStruct.Pin = GPIO_PIN_11;
 315              		.loc 1 151 0
 316 01ae CDF81CA0 		str	r10, [sp, #28]
 152:Src/gpio.c    **** 	GPIO_InitStruct.Mode =GPIO_MODE_INPUT;
 317              		.loc 1 152 0
 318 01b2 0894     		str	r4, [sp, #32]
 153:Src/gpio.c    **** 	GPIO_InitStruct.Pull = GPIO_PULLDOWN;
 319              		.loc 1 153 0
 320 01b4 0996     		str	r6, [sp, #36]
 154:Src/gpio.c    **** 	GPIO_InitStruct.Speed = GPIO_SPEED_FREQ_MEDIUM;
 321              		.loc 1 154 0
 322 01b6 0A95     		str	r5, [sp, #40]
 155:Src/gpio.c    **** 	//GPIO_InitStruct.Alternate = GPIO_;
 156:Src/gpio.c    **** 	HAL_GPIO_Init(GPIOB, &GPIO_InitStruct);
 323              		.loc 1 156 0
 324 01b8 07A9     		add	r1, sp, #28
 325 01ba 3846     		mov	r0, r7
 326 01bc FFF7FEFF 		bl	HAL_GPIO_Init
 327              	.LVL17:
 157:Src/gpio.c    **** 
 158:Src/gpio.c    **** 	/*Configure GPIO pin : PE7    echos 4th sensor */
 159:Src/gpio.c    **** 	GPIO_InitStruct.Pin = GPIO_PIN_7;
 328              		.loc 1 159 0
 329 01c0 8023     		movs	r3, #128
 330 01c2 0793     		str	r3, [sp, #28]
 160:Src/gpio.c    **** 	GPIO_InitStruct.Mode =GPIO_MODE_INPUT;
 331              		.loc 1 160 0
 332 01c4 0894     		str	r4, [sp, #32]
 161:Src/gpio.c    **** 	GPIO_InitStruct.Pull = GPIO_PULLDOWN;
 333              		.loc 1 161 0
 334 01c6 0996     		str	r6, [sp, #36]
 162:Src/gpio.c    **** 	GPIO_InitStruct.Speed = GPIO_SPEED_FREQ_MEDIUM;
 335              		.loc 1 162 0
 336 01c8 0A95     		str	r5, [sp, #40]
 163:Src/gpio.c    **** 	//GPIO_InitStruct.Alternate = GPIO_;
 164:Src/gpio.c    **** 	HAL_GPIO_Init(GPIOE, &GPIO_InitStruct);
 337              		.loc 1 164 0
 338 01ca 07A9     		add	r1, sp, #28
 339 01cc 4846     		mov	r0, r9
 340 01ce FFF7FEFF 		bl	HAL_GPIO_Init
 341              	.LVL18:
 165:Src/gpio.c    **** }
 342              		.loc 1 165 0
 343 01d2 0DB0     		add	sp, sp, #52
 344              	.LCFI2:
 345              		.cfi_def_cfa_offset 36
 346              		@ sp needed
 347 01d4 BDE8F08F 		pop	{r4, r5, r6, r7, r8, r9, r10, fp, pc}
 348              	.L4:
 349              		.align	2
ARM GAS  /tmp/ccUmtDkv.s 			page 10


 350              	.L3:
 351 01d8 00100240 		.word	1073876992
 352 01dc 00040048 		.word	1207960576
 353 01e0 00001210 		.word	269615104
 354 01e4 00100048 		.word	1207963648
 355 01e8 00080048 		.word	1207961600
 356 01ec 000C0048 		.word	1207962624
 357              		.cfi_endproc
 358              	.LFE124:
 360              		.text
 361              	.Letext0:
 362              		.file 2 "/opt/gcc-arm-none-eabi-5_4-2016q3/arm-none-eabi/include/machine/_default_types.h"
 363              		.file 3 "/opt/gcc-arm-none-eabi-5_4-2016q3/arm-none-eabi/include/sys/_stdint.h"
 364              		.file 4 "Drivers/CMSIS/Device/ST/STM32F3xx/Include/stm32f303xc.h"
 365              		.file 5 "Drivers/STM32F3xx_HAL_Driver/Inc/stm32f3xx_hal_gpio.h"
 366              		.file 6 "Drivers/CMSIS/Include/core_cm4.h"
ARM GAS  /tmp/ccUmtDkv.s 			page 11

