ARM GAS  /tmp/ccwKMGBI.s 			page 1


   1              		.syntax unified
   2              		.cpu cortex-m4
   3              		.eabi_attribute 27, 1
   4              		.eabi_attribute 28, 1
   5              		.fpu fpv4-sp-d16
   6              		.eabi_attribute 20, 1
   7              		.eabi_attribute 21, 1
   8              		.eabi_attribute 23, 3
   9              		.eabi_attribute 24, 1
  10              		.eabi_attribute 25, 1
  11              		.eabi_attribute 26, 1
  12              		.eabi_attribute 30, 1
  13              		.eabi_attribute 34, 1
  14              		.eabi_attribute 18, 4
  15              		.thumb
  16              		.syntax unified
  17              		.file	"stm32f3xx_hal_pcd.c"
  18              		.text
  19              	.Ltext0:
  20              		.cfi_sections	.debug_frame
  21              		.section	.text.HAL_PCD_MspInit,"ax",%progbits
  22              		.align	2
  23              		.weak	HAL_PCD_MspInit
  24              		.thumb
  25              		.thumb_func
  27              	HAL_PCD_MspInit:
  28              	.LFB126:
  29              		.file 1 "Drivers/STM32F3xx_HAL_Driver/Src/stm32f3xx_hal_pcd.c"
   1:Drivers/STM32F3xx_HAL_Driver/Src/stm32f3xx_hal_pcd.c **** /**
   2:Drivers/STM32F3xx_HAL_Driver/Src/stm32f3xx_hal_pcd.c ****   ******************************************************************************
   3:Drivers/STM32F3xx_HAL_Driver/Src/stm32f3xx_hal_pcd.c ****   * @file    stm32f3xx_hal_pcd.c
   4:Drivers/STM32F3xx_HAL_Driver/Src/stm32f3xx_hal_pcd.c ****   * @author  MCD Application Team
   5:Drivers/STM32F3xx_HAL_Driver/Src/stm32f3xx_hal_pcd.c ****   * @brief   PCD HAL module driver.
   6:Drivers/STM32F3xx_HAL_Driver/Src/stm32f3xx_hal_pcd.c ****   *          This file provides firmware functions to manage the following 
   7:Drivers/STM32F3xx_HAL_Driver/Src/stm32f3xx_hal_pcd.c ****   *          functionalities of the USB Peripheral Controller:
   8:Drivers/STM32F3xx_HAL_Driver/Src/stm32f3xx_hal_pcd.c ****   *           + Initialization and de-initialization functions
   9:Drivers/STM32F3xx_HAL_Driver/Src/stm32f3xx_hal_pcd.c ****   *           + IO operation functions
  10:Drivers/STM32F3xx_HAL_Driver/Src/stm32f3xx_hal_pcd.c ****   *           + Peripheral Control functions 
  11:Drivers/STM32F3xx_HAL_Driver/Src/stm32f3xx_hal_pcd.c ****   *           + Peripheral State functions
  12:Drivers/STM32F3xx_HAL_Driver/Src/stm32f3xx_hal_pcd.c ****   *         
  13:Drivers/STM32F3xx_HAL_Driver/Src/stm32f3xx_hal_pcd.c ****   @verbatim
  14:Drivers/STM32F3xx_HAL_Driver/Src/stm32f3xx_hal_pcd.c ****   ==============================================================================
  15:Drivers/STM32F3xx_HAL_Driver/Src/stm32f3xx_hal_pcd.c ****                     ##### How to use this driver #####
  16:Drivers/STM32F3xx_HAL_Driver/Src/stm32f3xx_hal_pcd.c ****   ==============================================================================
  17:Drivers/STM32F3xx_HAL_Driver/Src/stm32f3xx_hal_pcd.c ****     [..]
  18:Drivers/STM32F3xx_HAL_Driver/Src/stm32f3xx_hal_pcd.c ****       The PCD HAL driver can be used as follows:
  19:Drivers/STM32F3xx_HAL_Driver/Src/stm32f3xx_hal_pcd.c **** 
  20:Drivers/STM32F3xx_HAL_Driver/Src/stm32f3xx_hal_pcd.c ****      (#) Declare a PCD_HandleTypeDef handle structure, for example:
  21:Drivers/STM32F3xx_HAL_Driver/Src/stm32f3xx_hal_pcd.c ****          PCD_HandleTypeDef  hpcd;
  22:Drivers/STM32F3xx_HAL_Driver/Src/stm32f3xx_hal_pcd.c ****         
  23:Drivers/STM32F3xx_HAL_Driver/Src/stm32f3xx_hal_pcd.c ****      (#) Fill parameters of Init structure in HCD handle
  24:Drivers/STM32F3xx_HAL_Driver/Src/stm32f3xx_hal_pcd.c ****   
  25:Drivers/STM32F3xx_HAL_Driver/Src/stm32f3xx_hal_pcd.c ****      (#) Call HAL_PCD_Init() API to initialize the HCD peripheral (Core, Device core, ...) 
  26:Drivers/STM32F3xx_HAL_Driver/Src/stm32f3xx_hal_pcd.c **** 
  27:Drivers/STM32F3xx_HAL_Driver/Src/stm32f3xx_hal_pcd.c ****      (#) Initialize the PCD low level resources through the HAL_PCD_MspInit() API:
  28:Drivers/STM32F3xx_HAL_Driver/Src/stm32f3xx_hal_pcd.c ****          (##) Enable the PCD/USB Low Level interface clock using 
  29:Drivers/STM32F3xx_HAL_Driver/Src/stm32f3xx_hal_pcd.c ****               (+++) __HAL_RCC_USB_CLK_ENABLE();
ARM GAS  /tmp/ccwKMGBI.s 			page 2


  30:Drivers/STM32F3xx_HAL_Driver/Src/stm32f3xx_hal_pcd.c ****            
  31:Drivers/STM32F3xx_HAL_Driver/Src/stm32f3xx_hal_pcd.c ****          (##) Initialize the related GPIO clocks
  32:Drivers/STM32F3xx_HAL_Driver/Src/stm32f3xx_hal_pcd.c ****          (##) Configure PCD pin-out
  33:Drivers/STM32F3xx_HAL_Driver/Src/stm32f3xx_hal_pcd.c ****          (##) Configure PCD NVIC interrupt
  34:Drivers/STM32F3xx_HAL_Driver/Src/stm32f3xx_hal_pcd.c ****     
  35:Drivers/STM32F3xx_HAL_Driver/Src/stm32f3xx_hal_pcd.c ****      (#)Associate the Upper USB device stack to the HAL PCD Driver:
  36:Drivers/STM32F3xx_HAL_Driver/Src/stm32f3xx_hal_pcd.c ****          (##) hpcd.pData = pdev;
  37:Drivers/STM32F3xx_HAL_Driver/Src/stm32f3xx_hal_pcd.c **** 
  38:Drivers/STM32F3xx_HAL_Driver/Src/stm32f3xx_hal_pcd.c ****      (#)Enable HCD transmission and reception:
  39:Drivers/STM32F3xx_HAL_Driver/Src/stm32f3xx_hal_pcd.c ****          (##) HAL_PCD_Start();
  40:Drivers/STM32F3xx_HAL_Driver/Src/stm32f3xx_hal_pcd.c **** 
  41:Drivers/STM32F3xx_HAL_Driver/Src/stm32f3xx_hal_pcd.c ****   @endverbatim
  42:Drivers/STM32F3xx_HAL_Driver/Src/stm32f3xx_hal_pcd.c ****   ******************************************************************************
  43:Drivers/STM32F3xx_HAL_Driver/Src/stm32f3xx_hal_pcd.c ****   * @attention
  44:Drivers/STM32F3xx_HAL_Driver/Src/stm32f3xx_hal_pcd.c ****   *
  45:Drivers/STM32F3xx_HAL_Driver/Src/stm32f3xx_hal_pcd.c ****   * <h2><center>&copy; COPYRIGHT(c) 2016 STMicroelectronics</center></h2>
  46:Drivers/STM32F3xx_HAL_Driver/Src/stm32f3xx_hal_pcd.c ****   *
  47:Drivers/STM32F3xx_HAL_Driver/Src/stm32f3xx_hal_pcd.c ****   * Redistribution and use in source and binary forms, with or without modification,
  48:Drivers/STM32F3xx_HAL_Driver/Src/stm32f3xx_hal_pcd.c ****   * are permitted provided that the following conditions are met:
  49:Drivers/STM32F3xx_HAL_Driver/Src/stm32f3xx_hal_pcd.c ****   *   1. Redistributions of source code must retain the above copyright notice,
  50:Drivers/STM32F3xx_HAL_Driver/Src/stm32f3xx_hal_pcd.c ****   *      this list of conditions and the following disclaimer.
  51:Drivers/STM32F3xx_HAL_Driver/Src/stm32f3xx_hal_pcd.c ****   *   2. Redistributions in binary form must reproduce the above copyright notice,
  52:Drivers/STM32F3xx_HAL_Driver/Src/stm32f3xx_hal_pcd.c ****   *      this list of conditions and the following disclaimer in the documentation
  53:Drivers/STM32F3xx_HAL_Driver/Src/stm32f3xx_hal_pcd.c ****   *      and/or other materials provided with the distribution.
  54:Drivers/STM32F3xx_HAL_Driver/Src/stm32f3xx_hal_pcd.c ****   *   3. Neither the name of STMicroelectronics nor the names of its contributors
  55:Drivers/STM32F3xx_HAL_Driver/Src/stm32f3xx_hal_pcd.c ****   *      may be used to endorse or promote products derived from this software
  56:Drivers/STM32F3xx_HAL_Driver/Src/stm32f3xx_hal_pcd.c ****   *      without specific prior written permission.
  57:Drivers/STM32F3xx_HAL_Driver/Src/stm32f3xx_hal_pcd.c ****   *
  58:Drivers/STM32F3xx_HAL_Driver/Src/stm32f3xx_hal_pcd.c ****   * THIS SOFTWARE IS PROVIDED BY THE COPYRIGHT HOLDERS AND CONTRIBUTORS "AS IS"
  59:Drivers/STM32F3xx_HAL_Driver/Src/stm32f3xx_hal_pcd.c ****   * AND ANY EXPRESS OR IMPLIED WARRANTIES, INCLUDING, BUT NOT LIMITED TO, THE
  60:Drivers/STM32F3xx_HAL_Driver/Src/stm32f3xx_hal_pcd.c ****   * IMPLIED WARRANTIES OF MERCHANTABILITY AND FITNESS FOR A PARTICULAR PURPOSE ARE
  61:Drivers/STM32F3xx_HAL_Driver/Src/stm32f3xx_hal_pcd.c ****   * DISCLAIMED. IN NO EVENT SHALL THE COPYRIGHT HOLDER OR CONTRIBUTORS BE LIABLE
  62:Drivers/STM32F3xx_HAL_Driver/Src/stm32f3xx_hal_pcd.c ****   * FOR ANY DIRECT, INDIRECT, INCIDENTAL, SPECIAL, EXEMPLARY, OR CONSEQUENTIAL
  63:Drivers/STM32F3xx_HAL_Driver/Src/stm32f3xx_hal_pcd.c ****   * DAMAGES (INCLUDING, BUT NOT LIMITED TO, PROCUREMENT OF SUBSTITUTE GOODS OR
  64:Drivers/STM32F3xx_HAL_Driver/Src/stm32f3xx_hal_pcd.c ****   * SERVICES; LOSS OF USE, DATA, OR PROFITS; OR BUSINESS INTERRUPTION) HOWEVER
  65:Drivers/STM32F3xx_HAL_Driver/Src/stm32f3xx_hal_pcd.c ****   * CAUSED AND ON ANY THEORY OF LIABILITY, WHETHER IN CONTRACT, STRICT LIABILITY,
  66:Drivers/STM32F3xx_HAL_Driver/Src/stm32f3xx_hal_pcd.c ****   * OR TORT (INCLUDING NEGLIGENCE OR OTHERWISE) ARISING IN ANY WAY OUT OF THE USE
  67:Drivers/STM32F3xx_HAL_Driver/Src/stm32f3xx_hal_pcd.c ****   * OF THIS SOFTWARE, EVEN IF ADVISED OF THE POSSIBILITY OF SUCH DAMAGE.
  68:Drivers/STM32F3xx_HAL_Driver/Src/stm32f3xx_hal_pcd.c ****   *
  69:Drivers/STM32F3xx_HAL_Driver/Src/stm32f3xx_hal_pcd.c ****   ******************************************************************************
  70:Drivers/STM32F3xx_HAL_Driver/Src/stm32f3xx_hal_pcd.c ****   */
  71:Drivers/STM32F3xx_HAL_Driver/Src/stm32f3xx_hal_pcd.c **** 
  72:Drivers/STM32F3xx_HAL_Driver/Src/stm32f3xx_hal_pcd.c **** /* Includes ------------------------------------------------------------------*/
  73:Drivers/STM32F3xx_HAL_Driver/Src/stm32f3xx_hal_pcd.c **** #include "stm32f3xx_hal.h"
  74:Drivers/STM32F3xx_HAL_Driver/Src/stm32f3xx_hal_pcd.c **** 
  75:Drivers/STM32F3xx_HAL_Driver/Src/stm32f3xx_hal_pcd.c **** #ifdef HAL_PCD_MODULE_ENABLED
  76:Drivers/STM32F3xx_HAL_Driver/Src/stm32f3xx_hal_pcd.c **** 
  77:Drivers/STM32F3xx_HAL_Driver/Src/stm32f3xx_hal_pcd.c **** #if defined(STM32F302xE) || defined(STM32F303xE) || \
  78:Drivers/STM32F3xx_HAL_Driver/Src/stm32f3xx_hal_pcd.c ****     defined(STM32F302xC) || defined(STM32F303xC) || \
  79:Drivers/STM32F3xx_HAL_Driver/Src/stm32f3xx_hal_pcd.c ****     defined(STM32F302x8)                         || \
  80:Drivers/STM32F3xx_HAL_Driver/Src/stm32f3xx_hal_pcd.c ****     defined(STM32F373xC)
  81:Drivers/STM32F3xx_HAL_Driver/Src/stm32f3xx_hal_pcd.c **** 
  82:Drivers/STM32F3xx_HAL_Driver/Src/stm32f3xx_hal_pcd.c **** /** @addtogroup STM32F3xx_HAL_Driver
  83:Drivers/STM32F3xx_HAL_Driver/Src/stm32f3xx_hal_pcd.c ****   * @{
  84:Drivers/STM32F3xx_HAL_Driver/Src/stm32f3xx_hal_pcd.c ****   */
  85:Drivers/STM32F3xx_HAL_Driver/Src/stm32f3xx_hal_pcd.c **** 
  86:Drivers/STM32F3xx_HAL_Driver/Src/stm32f3xx_hal_pcd.c **** /** @defgroup PCD PCD
ARM GAS  /tmp/ccwKMGBI.s 			page 3


  87:Drivers/STM32F3xx_HAL_Driver/Src/stm32f3xx_hal_pcd.c ****   * @brief PCD HAL module driver
  88:Drivers/STM32F3xx_HAL_Driver/Src/stm32f3xx_hal_pcd.c ****   * @{
  89:Drivers/STM32F3xx_HAL_Driver/Src/stm32f3xx_hal_pcd.c ****   */
  90:Drivers/STM32F3xx_HAL_Driver/Src/stm32f3xx_hal_pcd.c **** 
  91:Drivers/STM32F3xx_HAL_Driver/Src/stm32f3xx_hal_pcd.c **** /* Private typedef -----------------------------------------------------------*/
  92:Drivers/STM32F3xx_HAL_Driver/Src/stm32f3xx_hal_pcd.c **** /* Private define ------------------------------------------------------------*/
  93:Drivers/STM32F3xx_HAL_Driver/Src/stm32f3xx_hal_pcd.c **** 
  94:Drivers/STM32F3xx_HAL_Driver/Src/stm32f3xx_hal_pcd.c **** /** @defgroup PCD_Private_Define PCD Private Define
  95:Drivers/STM32F3xx_HAL_Driver/Src/stm32f3xx_hal_pcd.c ****   * @{
  96:Drivers/STM32F3xx_HAL_Driver/Src/stm32f3xx_hal_pcd.c ****   */
  97:Drivers/STM32F3xx_HAL_Driver/Src/stm32f3xx_hal_pcd.c **** #define BTABLE_ADDRESS                  (0x000U)  
  98:Drivers/STM32F3xx_HAL_Driver/Src/stm32f3xx_hal_pcd.c **** /**
  99:Drivers/STM32F3xx_HAL_Driver/Src/stm32f3xx_hal_pcd.c ****   * @}
 100:Drivers/STM32F3xx_HAL_Driver/Src/stm32f3xx_hal_pcd.c ****   */ 
 101:Drivers/STM32F3xx_HAL_Driver/Src/stm32f3xx_hal_pcd.c ****   
 102:Drivers/STM32F3xx_HAL_Driver/Src/stm32f3xx_hal_pcd.c **** /* Private macro -------------------------------------------------------------*/
 103:Drivers/STM32F3xx_HAL_Driver/Src/stm32f3xx_hal_pcd.c **** /* Private variables ---------------------------------------------------------*/
 104:Drivers/STM32F3xx_HAL_Driver/Src/stm32f3xx_hal_pcd.c **** /* Private function prototypes -----------------------------------------------*/
 105:Drivers/STM32F3xx_HAL_Driver/Src/stm32f3xx_hal_pcd.c **** /** @defgroup PCD_Private_Functions PCD Private Functions
 106:Drivers/STM32F3xx_HAL_Driver/Src/stm32f3xx_hal_pcd.c ****   * @{
 107:Drivers/STM32F3xx_HAL_Driver/Src/stm32f3xx_hal_pcd.c ****   */
 108:Drivers/STM32F3xx_HAL_Driver/Src/stm32f3xx_hal_pcd.c **** static HAL_StatusTypeDef PCD_EP_ISR_Handler(PCD_HandleTypeDef *hpcd);
 109:Drivers/STM32F3xx_HAL_Driver/Src/stm32f3xx_hal_pcd.c **** /**
 110:Drivers/STM32F3xx_HAL_Driver/Src/stm32f3xx_hal_pcd.c ****   * @}
 111:Drivers/STM32F3xx_HAL_Driver/Src/stm32f3xx_hal_pcd.c ****   */ 
 112:Drivers/STM32F3xx_HAL_Driver/Src/stm32f3xx_hal_pcd.c **** 
 113:Drivers/STM32F3xx_HAL_Driver/Src/stm32f3xx_hal_pcd.c **** /* Exported functions ---------------------------------------------------------*/
 114:Drivers/STM32F3xx_HAL_Driver/Src/stm32f3xx_hal_pcd.c **** 
 115:Drivers/STM32F3xx_HAL_Driver/Src/stm32f3xx_hal_pcd.c **** /** @defgroup PCD_Exported_Functions PCD Exported Functions
 116:Drivers/STM32F3xx_HAL_Driver/Src/stm32f3xx_hal_pcd.c ****   * @{
 117:Drivers/STM32F3xx_HAL_Driver/Src/stm32f3xx_hal_pcd.c ****   */
 118:Drivers/STM32F3xx_HAL_Driver/Src/stm32f3xx_hal_pcd.c **** 
 119:Drivers/STM32F3xx_HAL_Driver/Src/stm32f3xx_hal_pcd.c **** /** @defgroup PCD_Exported_Functions_Group1 Initialization and de-initialization functions 
 120:Drivers/STM32F3xx_HAL_Driver/Src/stm32f3xx_hal_pcd.c ****  *  @brief    Initialization and Configuration functions 
 121:Drivers/STM32F3xx_HAL_Driver/Src/stm32f3xx_hal_pcd.c ****  *
 122:Drivers/STM32F3xx_HAL_Driver/Src/stm32f3xx_hal_pcd.c **** @verbatim
 123:Drivers/STM32F3xx_HAL_Driver/Src/stm32f3xx_hal_pcd.c ****  ===============================================================================
 124:Drivers/STM32F3xx_HAL_Driver/Src/stm32f3xx_hal_pcd.c ****             ##### Initialization and de-initialization functions #####
 125:Drivers/STM32F3xx_HAL_Driver/Src/stm32f3xx_hal_pcd.c ****  ===============================================================================
 126:Drivers/STM32F3xx_HAL_Driver/Src/stm32f3xx_hal_pcd.c ****     [..]  This section provides functions allowing to:
 127:Drivers/STM32F3xx_HAL_Driver/Src/stm32f3xx_hal_pcd.c ****  
 128:Drivers/STM32F3xx_HAL_Driver/Src/stm32f3xx_hal_pcd.c **** @endverbatim
 129:Drivers/STM32F3xx_HAL_Driver/Src/stm32f3xx_hal_pcd.c ****   * @{
 130:Drivers/STM32F3xx_HAL_Driver/Src/stm32f3xx_hal_pcd.c ****   */
 131:Drivers/STM32F3xx_HAL_Driver/Src/stm32f3xx_hal_pcd.c **** 
 132:Drivers/STM32F3xx_HAL_Driver/Src/stm32f3xx_hal_pcd.c **** /**
 133:Drivers/STM32F3xx_HAL_Driver/Src/stm32f3xx_hal_pcd.c ****   * @brief  Initializes the PCD according to the specified
 134:Drivers/STM32F3xx_HAL_Driver/Src/stm32f3xx_hal_pcd.c ****   *         parameters in the PCD_InitTypeDef and create the associated handle.
 135:Drivers/STM32F3xx_HAL_Driver/Src/stm32f3xx_hal_pcd.c ****   * @param  hpcd PCD handle
 136:Drivers/STM32F3xx_HAL_Driver/Src/stm32f3xx_hal_pcd.c ****   * @retval HAL status
 137:Drivers/STM32F3xx_HAL_Driver/Src/stm32f3xx_hal_pcd.c ****   */
 138:Drivers/STM32F3xx_HAL_Driver/Src/stm32f3xx_hal_pcd.c **** HAL_StatusTypeDef HAL_PCD_Init(PCD_HandleTypeDef *hpcd)
 139:Drivers/STM32F3xx_HAL_Driver/Src/stm32f3xx_hal_pcd.c **** { 
 140:Drivers/STM32F3xx_HAL_Driver/Src/stm32f3xx_hal_pcd.c ****   uint32_t i = 0U;
 141:Drivers/STM32F3xx_HAL_Driver/Src/stm32f3xx_hal_pcd.c **** 
 142:Drivers/STM32F3xx_HAL_Driver/Src/stm32f3xx_hal_pcd.c ****   uint32_t wInterrupt_Mask = 0U;
 143:Drivers/STM32F3xx_HAL_Driver/Src/stm32f3xx_hal_pcd.c ****   
ARM GAS  /tmp/ccwKMGBI.s 			page 4


 144:Drivers/STM32F3xx_HAL_Driver/Src/stm32f3xx_hal_pcd.c ****   /* Check the PCD handle allocation */
 145:Drivers/STM32F3xx_HAL_Driver/Src/stm32f3xx_hal_pcd.c ****   if(hpcd == NULL)
 146:Drivers/STM32F3xx_HAL_Driver/Src/stm32f3xx_hal_pcd.c ****   {
 147:Drivers/STM32F3xx_HAL_Driver/Src/stm32f3xx_hal_pcd.c ****     return HAL_ERROR;
 148:Drivers/STM32F3xx_HAL_Driver/Src/stm32f3xx_hal_pcd.c ****   }
 149:Drivers/STM32F3xx_HAL_Driver/Src/stm32f3xx_hal_pcd.c ****   
 150:Drivers/STM32F3xx_HAL_Driver/Src/stm32f3xx_hal_pcd.c ****   /* Check the parameters */
 151:Drivers/STM32F3xx_HAL_Driver/Src/stm32f3xx_hal_pcd.c ****   assert_param(IS_PCD_ALL_INSTANCE(hpcd->Instance));
 152:Drivers/STM32F3xx_HAL_Driver/Src/stm32f3xx_hal_pcd.c **** 
 153:Drivers/STM32F3xx_HAL_Driver/Src/stm32f3xx_hal_pcd.c ****   if(hpcd->State == HAL_PCD_STATE_RESET)
 154:Drivers/STM32F3xx_HAL_Driver/Src/stm32f3xx_hal_pcd.c ****   {  
 155:Drivers/STM32F3xx_HAL_Driver/Src/stm32f3xx_hal_pcd.c ****     /* Allocate lock resource and initialize it */
 156:Drivers/STM32F3xx_HAL_Driver/Src/stm32f3xx_hal_pcd.c ****     hpcd->Lock = HAL_UNLOCKED;
 157:Drivers/STM32F3xx_HAL_Driver/Src/stm32f3xx_hal_pcd.c ****   
 158:Drivers/STM32F3xx_HAL_Driver/Src/stm32f3xx_hal_pcd.c ****     /* Init the low level hardware : GPIO, CLOCK, NVIC... */
 159:Drivers/STM32F3xx_HAL_Driver/Src/stm32f3xx_hal_pcd.c ****     HAL_PCD_MspInit(hpcd);
 160:Drivers/STM32F3xx_HAL_Driver/Src/stm32f3xx_hal_pcd.c ****   }
 161:Drivers/STM32F3xx_HAL_Driver/Src/stm32f3xx_hal_pcd.c **** 
 162:Drivers/STM32F3xx_HAL_Driver/Src/stm32f3xx_hal_pcd.c ****   hpcd->State = HAL_PCD_STATE_BUSY;
 163:Drivers/STM32F3xx_HAL_Driver/Src/stm32f3xx_hal_pcd.c ****  
 164:Drivers/STM32F3xx_HAL_Driver/Src/stm32f3xx_hal_pcd.c ****  /* Init endpoints structures */
 165:Drivers/STM32F3xx_HAL_Driver/Src/stm32f3xx_hal_pcd.c ****  for (i = 0U; i < hpcd->Init.dev_endpoints ; i++)
 166:Drivers/STM32F3xx_HAL_Driver/Src/stm32f3xx_hal_pcd.c ****  {
 167:Drivers/STM32F3xx_HAL_Driver/Src/stm32f3xx_hal_pcd.c ****    /* Init ep structure */
 168:Drivers/STM32F3xx_HAL_Driver/Src/stm32f3xx_hal_pcd.c ****    hpcd->IN_ep[i].is_in = 1U;
 169:Drivers/STM32F3xx_HAL_Driver/Src/stm32f3xx_hal_pcd.c ****    hpcd->IN_ep[i].num = i;
 170:Drivers/STM32F3xx_HAL_Driver/Src/stm32f3xx_hal_pcd.c ****    /* Control until ep is actvated */
 171:Drivers/STM32F3xx_HAL_Driver/Src/stm32f3xx_hal_pcd.c ****    hpcd->IN_ep[i].type = PCD_EP_TYPE_CTRL;
 172:Drivers/STM32F3xx_HAL_Driver/Src/stm32f3xx_hal_pcd.c ****    hpcd->IN_ep[i].maxpacket =  0U;
 173:Drivers/STM32F3xx_HAL_Driver/Src/stm32f3xx_hal_pcd.c ****    hpcd->IN_ep[i].xfer_buff = 0U;
 174:Drivers/STM32F3xx_HAL_Driver/Src/stm32f3xx_hal_pcd.c ****    hpcd->IN_ep[i].xfer_len = 0U;
 175:Drivers/STM32F3xx_HAL_Driver/Src/stm32f3xx_hal_pcd.c ****  }
 176:Drivers/STM32F3xx_HAL_Driver/Src/stm32f3xx_hal_pcd.c ****  
 177:Drivers/STM32F3xx_HAL_Driver/Src/stm32f3xx_hal_pcd.c ****  for (i = 0U; i < hpcd->Init.dev_endpoints ; i++)
 178:Drivers/STM32F3xx_HAL_Driver/Src/stm32f3xx_hal_pcd.c ****  {
 179:Drivers/STM32F3xx_HAL_Driver/Src/stm32f3xx_hal_pcd.c ****    hpcd->OUT_ep[i].is_in = 0U;
 180:Drivers/STM32F3xx_HAL_Driver/Src/stm32f3xx_hal_pcd.c ****    hpcd->OUT_ep[i].num = i;
 181:Drivers/STM32F3xx_HAL_Driver/Src/stm32f3xx_hal_pcd.c ****    /* Control until ep is activated */
 182:Drivers/STM32F3xx_HAL_Driver/Src/stm32f3xx_hal_pcd.c ****    hpcd->OUT_ep[i].type = PCD_EP_TYPE_CTRL;
 183:Drivers/STM32F3xx_HAL_Driver/Src/stm32f3xx_hal_pcd.c ****    hpcd->OUT_ep[i].maxpacket = 0U;
 184:Drivers/STM32F3xx_HAL_Driver/Src/stm32f3xx_hal_pcd.c ****    hpcd->OUT_ep[i].xfer_buff = 0U;
 185:Drivers/STM32F3xx_HAL_Driver/Src/stm32f3xx_hal_pcd.c ****    hpcd->OUT_ep[i].xfer_len = 0U;
 186:Drivers/STM32F3xx_HAL_Driver/Src/stm32f3xx_hal_pcd.c ****  }
 187:Drivers/STM32F3xx_HAL_Driver/Src/stm32f3xx_hal_pcd.c ****   
 188:Drivers/STM32F3xx_HAL_Driver/Src/stm32f3xx_hal_pcd.c ****  /* Init Device */
 189:Drivers/STM32F3xx_HAL_Driver/Src/stm32f3xx_hal_pcd.c ****  /*CNTR_FRES = 1U*/
 190:Drivers/STM32F3xx_HAL_Driver/Src/stm32f3xx_hal_pcd.c ****  hpcd->Instance->CNTR = USB_CNTR_FRES;
 191:Drivers/STM32F3xx_HAL_Driver/Src/stm32f3xx_hal_pcd.c ****  
 192:Drivers/STM32F3xx_HAL_Driver/Src/stm32f3xx_hal_pcd.c ****  /*CNTR_FRES = 0U*/
 193:Drivers/STM32F3xx_HAL_Driver/Src/stm32f3xx_hal_pcd.c ****  hpcd->Instance->CNTR = 0U;
 194:Drivers/STM32F3xx_HAL_Driver/Src/stm32f3xx_hal_pcd.c ****  
 195:Drivers/STM32F3xx_HAL_Driver/Src/stm32f3xx_hal_pcd.c ****  /*Clear pending interrupts*/
 196:Drivers/STM32F3xx_HAL_Driver/Src/stm32f3xx_hal_pcd.c ****  hpcd->Instance->ISTR = 0U;
 197:Drivers/STM32F3xx_HAL_Driver/Src/stm32f3xx_hal_pcd.c ****  
 198:Drivers/STM32F3xx_HAL_Driver/Src/stm32f3xx_hal_pcd.c ****   /*Set Btable Adress*/
 199:Drivers/STM32F3xx_HAL_Driver/Src/stm32f3xx_hal_pcd.c ****  hpcd->Instance->BTABLE = BTABLE_ADDRESS;
 200:Drivers/STM32F3xx_HAL_Driver/Src/stm32f3xx_hal_pcd.c ****   
ARM GAS  /tmp/ccwKMGBI.s 			page 5


 201:Drivers/STM32F3xx_HAL_Driver/Src/stm32f3xx_hal_pcd.c ****   /*set wInterrupt_Mask global variable*/
 202:Drivers/STM32F3xx_HAL_Driver/Src/stm32f3xx_hal_pcd.c ****   wInterrupt_Mask = USB_CNTR_CTRM  | USB_CNTR_WKUPM | USB_CNTR_SUSPM | USB_CNTR_ERRM \
 203:Drivers/STM32F3xx_HAL_Driver/Src/stm32f3xx_hal_pcd.c ****   | USB_CNTR_SOFM | USB_CNTR_ESOFM | USB_CNTR_RESETM;
 204:Drivers/STM32F3xx_HAL_Driver/Src/stm32f3xx_hal_pcd.c ****   
 205:Drivers/STM32F3xx_HAL_Driver/Src/stm32f3xx_hal_pcd.c ****   /*Set interrupt mask*/
 206:Drivers/STM32F3xx_HAL_Driver/Src/stm32f3xx_hal_pcd.c ****   hpcd->Instance->CNTR = wInterrupt_Mask;
 207:Drivers/STM32F3xx_HAL_Driver/Src/stm32f3xx_hal_pcd.c ****   
 208:Drivers/STM32F3xx_HAL_Driver/Src/stm32f3xx_hal_pcd.c ****   hpcd->USB_Address = 0U;
 209:Drivers/STM32F3xx_HAL_Driver/Src/stm32f3xx_hal_pcd.c ****   hpcd->State= HAL_PCD_STATE_READY;
 210:Drivers/STM32F3xx_HAL_Driver/Src/stm32f3xx_hal_pcd.c **** 
 211:Drivers/STM32F3xx_HAL_Driver/Src/stm32f3xx_hal_pcd.c ****  return HAL_OK;
 212:Drivers/STM32F3xx_HAL_Driver/Src/stm32f3xx_hal_pcd.c **** }
 213:Drivers/STM32F3xx_HAL_Driver/Src/stm32f3xx_hal_pcd.c **** 
 214:Drivers/STM32F3xx_HAL_Driver/Src/stm32f3xx_hal_pcd.c **** /**
 215:Drivers/STM32F3xx_HAL_Driver/Src/stm32f3xx_hal_pcd.c ****   * @brief  DeInitializes the PCD peripheral 
 216:Drivers/STM32F3xx_HAL_Driver/Src/stm32f3xx_hal_pcd.c ****   * @param  hpcd PCD handle
 217:Drivers/STM32F3xx_HAL_Driver/Src/stm32f3xx_hal_pcd.c ****   * @retval HAL status
 218:Drivers/STM32F3xx_HAL_Driver/Src/stm32f3xx_hal_pcd.c ****   */
 219:Drivers/STM32F3xx_HAL_Driver/Src/stm32f3xx_hal_pcd.c **** HAL_StatusTypeDef HAL_PCD_DeInit(PCD_HandleTypeDef *hpcd)
 220:Drivers/STM32F3xx_HAL_Driver/Src/stm32f3xx_hal_pcd.c **** {
 221:Drivers/STM32F3xx_HAL_Driver/Src/stm32f3xx_hal_pcd.c ****   /* Check the PCD handle allocation */
 222:Drivers/STM32F3xx_HAL_Driver/Src/stm32f3xx_hal_pcd.c ****   if(hpcd == NULL)
 223:Drivers/STM32F3xx_HAL_Driver/Src/stm32f3xx_hal_pcd.c ****   {
 224:Drivers/STM32F3xx_HAL_Driver/Src/stm32f3xx_hal_pcd.c ****     return HAL_ERROR;
 225:Drivers/STM32F3xx_HAL_Driver/Src/stm32f3xx_hal_pcd.c ****   }
 226:Drivers/STM32F3xx_HAL_Driver/Src/stm32f3xx_hal_pcd.c **** 
 227:Drivers/STM32F3xx_HAL_Driver/Src/stm32f3xx_hal_pcd.c ****   hpcd->State = HAL_PCD_STATE_BUSY;
 228:Drivers/STM32F3xx_HAL_Driver/Src/stm32f3xx_hal_pcd.c ****   
 229:Drivers/STM32F3xx_HAL_Driver/Src/stm32f3xx_hal_pcd.c ****   /* Stop Device */
 230:Drivers/STM32F3xx_HAL_Driver/Src/stm32f3xx_hal_pcd.c ****   HAL_PCD_Stop(hpcd);
 231:Drivers/STM32F3xx_HAL_Driver/Src/stm32f3xx_hal_pcd.c ****     
 232:Drivers/STM32F3xx_HAL_Driver/Src/stm32f3xx_hal_pcd.c ****   /* DeInit the low level hardware */
 233:Drivers/STM32F3xx_HAL_Driver/Src/stm32f3xx_hal_pcd.c ****   HAL_PCD_MspDeInit(hpcd);
 234:Drivers/STM32F3xx_HAL_Driver/Src/stm32f3xx_hal_pcd.c ****   
 235:Drivers/STM32F3xx_HAL_Driver/Src/stm32f3xx_hal_pcd.c ****   hpcd->State = HAL_PCD_STATE_RESET; 
 236:Drivers/STM32F3xx_HAL_Driver/Src/stm32f3xx_hal_pcd.c ****   
 237:Drivers/STM32F3xx_HAL_Driver/Src/stm32f3xx_hal_pcd.c ****   return HAL_OK;
 238:Drivers/STM32F3xx_HAL_Driver/Src/stm32f3xx_hal_pcd.c **** }
 239:Drivers/STM32F3xx_HAL_Driver/Src/stm32f3xx_hal_pcd.c **** 
 240:Drivers/STM32F3xx_HAL_Driver/Src/stm32f3xx_hal_pcd.c **** /**
 241:Drivers/STM32F3xx_HAL_Driver/Src/stm32f3xx_hal_pcd.c ****   * @brief  Initializes the PCD MSP.
 242:Drivers/STM32F3xx_HAL_Driver/Src/stm32f3xx_hal_pcd.c ****   * @param  hpcd PCD handle
 243:Drivers/STM32F3xx_HAL_Driver/Src/stm32f3xx_hal_pcd.c ****   * @retval None
 244:Drivers/STM32F3xx_HAL_Driver/Src/stm32f3xx_hal_pcd.c ****   */
 245:Drivers/STM32F3xx_HAL_Driver/Src/stm32f3xx_hal_pcd.c **** __weak void HAL_PCD_MspInit(PCD_HandleTypeDef *hpcd)
 246:Drivers/STM32F3xx_HAL_Driver/Src/stm32f3xx_hal_pcd.c **** {
  30              		.loc 1 246 0
  31              		.cfi_startproc
  32              		@ args = 0, pretend = 0, frame = 0
  33              		@ frame_needed = 0, uses_anonymous_args = 0
  34              		@ link register save eliminated.
  35              	.LVL0:
  36 0000 7047     		bx	lr
  37              		.cfi_endproc
  38              	.LFE126:
  40 0002 00BF     		.section	.text.HAL_PCD_Init,"ax",%progbits
  41              		.align	2
ARM GAS  /tmp/ccwKMGBI.s 			page 6


  42              		.global	HAL_PCD_Init
  43              		.thumb
  44              		.thumb_func
  46              	HAL_PCD_Init:
  47              	.LFB124:
 139:Drivers/STM32F3xx_HAL_Driver/Src/stm32f3xx_hal_pcd.c ****   uint32_t i = 0U;
  48              		.loc 1 139 0
  49              		.cfi_startproc
  50              		@ args = 0, pretend = 0, frame = 0
  51              		@ frame_needed = 0, uses_anonymous_args = 0
  52              	.LVL1:
 145:Drivers/STM32F3xx_HAL_Driver/Src/stm32f3xx_hal_pcd.c ****   {
  53              		.loc 1 145 0
  54 0000 0028     		cmp	r0, #0
  55 0002 51D0     		beq	.L9
 139:Drivers/STM32F3xx_HAL_Driver/Src/stm32f3xx_hal_pcd.c ****   uint32_t i = 0U;
  56              		.loc 1 139 0
  57 0004 10B5     		push	{r4, lr}
  58              	.LCFI0:
  59              		.cfi_def_cfa_offset 8
  60              		.cfi_offset 4, -8
  61              		.cfi_offset 14, -4
  62 0006 0446     		mov	r4, r0
 153:Drivers/STM32F3xx_HAL_Driver/Src/stm32f3xx_hal_pcd.c ****   {  
  63              		.loc 1 153 0
  64 0008 90F87133 		ldrb	r3, [r0, #881]	@ zero_extendqisi2
  65 000c 13F0FF0F 		tst	r3, #255
  66 0010 04D1     		bne	.L4
 156:Drivers/STM32F3xx_HAL_Driver/Src/stm32f3xx_hal_pcd.c ****   
  67              		.loc 1 156 0
  68 0012 0023     		movs	r3, #0
  69 0014 80F87033 		strb	r3, [r0, #880]
 159:Drivers/STM32F3xx_HAL_Driver/Src/stm32f3xx_hal_pcd.c ****   }
  70              		.loc 1 159 0
  71 0018 FFF7FEFF 		bl	HAL_PCD_MspInit
  72              	.LVL2:
  73              	.L4:
 162:Drivers/STM32F3xx_HAL_Driver/Src/stm32f3xx_hal_pcd.c ****  
  74              		.loc 1 162 0
  75 001c 0323     		movs	r3, #3
  76 001e 84F87133 		strb	r3, [r4, #881]
 165:Drivers/STM32F3xx_HAL_Driver/Src/stm32f3xx_hal_pcd.c ****  {
  77              		.loc 1 165 0
  78 0022 0022     		movs	r2, #0
  79 0024 0FE0     		b	.L5
  80              	.LVL3:
  81              	.L6:
 168:Drivers/STM32F3xx_HAL_Driver/Src/stm32f3xx_hal_pcd.c ****    hpcd->IN_ep[i].num = i;
  82              		.loc 1 168 0 discriminator 3
  83 0026 D100     		lsls	r1, r2, #3
  84 0028 891A     		subs	r1, r1, r2
  85 002a 8B00     		lsls	r3, r1, #2
  86 002c 2344     		add	r3, r3, r4
  87 002e 0121     		movs	r1, #1
  88 0030 83F82910 		strb	r1, [r3, #41]
 169:Drivers/STM32F3xx_HAL_Driver/Src/stm32f3xx_hal_pcd.c ****    /* Control until ep is actvated */
  89              		.loc 1 169 0 discriminator 3
ARM GAS  /tmp/ccwKMGBI.s 			page 7


  90 0034 83F82820 		strb	r2, [r3, #40]
 171:Drivers/STM32F3xx_HAL_Driver/Src/stm32f3xx_hal_pcd.c ****    hpcd->IN_ep[i].maxpacket =  0U;
  91              		.loc 1 171 0 discriminator 3
  92 0038 0021     		movs	r1, #0
  93 003a 83F82B10 		strb	r1, [r3, #43]
 172:Drivers/STM32F3xx_HAL_Driver/Src/stm32f3xx_hal_pcd.c ****    hpcd->IN_ep[i].xfer_buff = 0U;
  94              		.loc 1 172 0 discriminator 3
  95 003e 5963     		str	r1, [r3, #52]
 173:Drivers/STM32F3xx_HAL_Driver/Src/stm32f3xx_hal_pcd.c ****    hpcd->IN_ep[i].xfer_len = 0U;
  96              		.loc 1 173 0 discriminator 3
  97 0040 9963     		str	r1, [r3, #56]
 174:Drivers/STM32F3xx_HAL_Driver/Src/stm32f3xx_hal_pcd.c ****  }
  98              		.loc 1 174 0 discriminator 3
  99 0042 D963     		str	r1, [r3, #60]
 165:Drivers/STM32F3xx_HAL_Driver/Src/stm32f3xx_hal_pcd.c ****  {
 100              		.loc 1 165 0 discriminator 3
 101 0044 0132     		adds	r2, r2, #1
 102              	.LVL4:
 103              	.L5:
 165:Drivers/STM32F3xx_HAL_Driver/Src/stm32f3xx_hal_pcd.c ****  {
 104              		.loc 1 165 0 is_stmt 0 discriminator 1
 105 0046 6068     		ldr	r0, [r4, #4]
 106 0048 8242     		cmp	r2, r0
 107 004a ECD3     		bcc	.L6
 108 004c 0022     		movs	r2, #0
 109              	.LVL5:
 110 004e 11E0     		b	.L7
 111              	.LVL6:
 112              	.L8:
 179:Drivers/STM32F3xx_HAL_Driver/Src/stm32f3xx_hal_pcd.c ****    hpcd->OUT_ep[i].num = i;
 113              		.loc 1 179 0 is_stmt 1 discriminator 3
 114 0050 D100     		lsls	r1, r2, #3
 115 0052 891A     		subs	r1, r1, r2
 116 0054 8B00     		lsls	r3, r1, #2
 117 0056 2344     		add	r3, r3, r4
 118 0058 0021     		movs	r1, #0
 119 005a 83F8CD11 		strb	r1, [r3, #461]
 180:Drivers/STM32F3xx_HAL_Driver/Src/stm32f3xx_hal_pcd.c ****    /* Control until ep is activated */
 120              		.loc 1 180 0 discriminator 3
 121 005e 83F8CC21 		strb	r2, [r3, #460]
 182:Drivers/STM32F3xx_HAL_Driver/Src/stm32f3xx_hal_pcd.c ****    hpcd->OUT_ep[i].maxpacket = 0U;
 122              		.loc 1 182 0 discriminator 3
 123 0062 83F8CF11 		strb	r1, [r3, #463]
 183:Drivers/STM32F3xx_HAL_Driver/Src/stm32f3xx_hal_pcd.c ****    hpcd->OUT_ep[i].xfer_buff = 0U;
 124              		.loc 1 183 0 discriminator 3
 125 0066 C3F8D811 		str	r1, [r3, #472]
 184:Drivers/STM32F3xx_HAL_Driver/Src/stm32f3xx_hal_pcd.c ****    hpcd->OUT_ep[i].xfer_len = 0U;
 126              		.loc 1 184 0 discriminator 3
 127 006a C3F8DC11 		str	r1, [r3, #476]
 185:Drivers/STM32F3xx_HAL_Driver/Src/stm32f3xx_hal_pcd.c ****  }
 128              		.loc 1 185 0 discriminator 3
 129 006e C3F8E011 		str	r1, [r3, #480]
 177:Drivers/STM32F3xx_HAL_Driver/Src/stm32f3xx_hal_pcd.c ****  {
 130              		.loc 1 177 0 discriminator 3
 131 0072 0132     		adds	r2, r2, #1
 132              	.LVL7:
 133              	.L7:
ARM GAS  /tmp/ccwKMGBI.s 			page 8


 177:Drivers/STM32F3xx_HAL_Driver/Src/stm32f3xx_hal_pcd.c ****  {
 134              		.loc 1 177 0 is_stmt 0 discriminator 1
 135 0074 8242     		cmp	r2, r0
 136 0076 EBD3     		bcc	.L8
 190:Drivers/STM32F3xx_HAL_Driver/Src/stm32f3xx_hal_pcd.c ****  
 137              		.loc 1 190 0 is_stmt 1
 138 0078 2268     		ldr	r2, [r4]
 139              	.LVL8:
 140 007a 0123     		movs	r3, #1
 141 007c A2F84030 		strh	r3, [r2, #64]	@ movhi
 193:Drivers/STM32F3xx_HAL_Driver/Src/stm32f3xx_hal_pcd.c ****  
 142              		.loc 1 193 0
 143 0080 2268     		ldr	r2, [r4]
 144 0082 0020     		movs	r0, #0
 145 0084 A2F84000 		strh	r0, [r2, #64]	@ movhi
 196:Drivers/STM32F3xx_HAL_Driver/Src/stm32f3xx_hal_pcd.c ****  
 146              		.loc 1 196 0
 147 0088 2268     		ldr	r2, [r4]
 148 008a A2F84400 		strh	r0, [r2, #68]	@ movhi
 199:Drivers/STM32F3xx_HAL_Driver/Src/stm32f3xx_hal_pcd.c ****   
 149              		.loc 1 199 0
 150 008e 2268     		ldr	r2, [r4]
 151 0090 A2F85000 		strh	r0, [r2, #80]	@ movhi
 152              	.LVL9:
 206:Drivers/STM32F3xx_HAL_Driver/Src/stm32f3xx_hal_pcd.c ****   
 153              		.loc 1 206 0
 154 0094 2268     		ldr	r2, [r4]
 155 0096 4FF43F41 		mov	r1, #48896
 156 009a A2F84010 		strh	r1, [r2, #64]	@ movhi
 208:Drivers/STM32F3xx_HAL_Driver/Src/stm32f3xx_hal_pcd.c ****   hpcd->State= HAL_PCD_STATE_READY;
 157              		.loc 1 208 0
 158 009e 84F82400 		strb	r0, [r4, #36]
 209:Drivers/STM32F3xx_HAL_Driver/Src/stm32f3xx_hal_pcd.c **** 
 159              		.loc 1 209 0
 160 00a2 84F87133 		strb	r3, [r4, #881]
 211:Drivers/STM32F3xx_HAL_Driver/Src/stm32f3xx_hal_pcd.c **** }
 161              		.loc 1 211 0
 162 00a6 10BD     		pop	{r4, pc}
 163              	.LVL10:
 164              	.L9:
 165              	.LCFI1:
 166              		.cfi_def_cfa_offset 0
 167              		.cfi_restore 4
 168              		.cfi_restore 14
 147:Drivers/STM32F3xx_HAL_Driver/Src/stm32f3xx_hal_pcd.c ****   }
 169              		.loc 1 147 0
 170 00a8 0120     		movs	r0, #1
 171              	.LVL11:
 172 00aa 7047     		bx	lr
 173              		.cfi_endproc
 174              	.LFE124:
 176              		.section	.text.HAL_PCD_MspDeInit,"ax",%progbits
 177              		.align	2
 178              		.weak	HAL_PCD_MspDeInit
 179              		.thumb
 180              		.thumb_func
 182              	HAL_PCD_MspDeInit:
ARM GAS  /tmp/ccwKMGBI.s 			page 9


 183              	.LFB127:
 247:Drivers/STM32F3xx_HAL_Driver/Src/stm32f3xx_hal_pcd.c ****   /* Prevent unused argument(s) compilation warning */
 248:Drivers/STM32F3xx_HAL_Driver/Src/stm32f3xx_hal_pcd.c ****   UNUSED(hpcd);
 249:Drivers/STM32F3xx_HAL_Driver/Src/stm32f3xx_hal_pcd.c **** 
 250:Drivers/STM32F3xx_HAL_Driver/Src/stm32f3xx_hal_pcd.c ****   /* NOTE : This function should not be modified, when the callback is needed,
 251:Drivers/STM32F3xx_HAL_Driver/Src/stm32f3xx_hal_pcd.c ****             the HAL_PCD_MspInit could be implemented in the user file
 252:Drivers/STM32F3xx_HAL_Driver/Src/stm32f3xx_hal_pcd.c ****    */
 253:Drivers/STM32F3xx_HAL_Driver/Src/stm32f3xx_hal_pcd.c **** }
 254:Drivers/STM32F3xx_HAL_Driver/Src/stm32f3xx_hal_pcd.c **** 
 255:Drivers/STM32F3xx_HAL_Driver/Src/stm32f3xx_hal_pcd.c **** /**
 256:Drivers/STM32F3xx_HAL_Driver/Src/stm32f3xx_hal_pcd.c ****   * @brief  DeInitializes PCD MSP.
 257:Drivers/STM32F3xx_HAL_Driver/Src/stm32f3xx_hal_pcd.c ****   * @param  hpcd PCD handle
 258:Drivers/STM32F3xx_HAL_Driver/Src/stm32f3xx_hal_pcd.c ****   * @retval None
 259:Drivers/STM32F3xx_HAL_Driver/Src/stm32f3xx_hal_pcd.c ****   */
 260:Drivers/STM32F3xx_HAL_Driver/Src/stm32f3xx_hal_pcd.c **** __weak void HAL_PCD_MspDeInit(PCD_HandleTypeDef *hpcd)
 261:Drivers/STM32F3xx_HAL_Driver/Src/stm32f3xx_hal_pcd.c **** {
 184              		.loc 1 261 0
 185              		.cfi_startproc
 186              		@ args = 0, pretend = 0, frame = 0
 187              		@ frame_needed = 0, uses_anonymous_args = 0
 188              		@ link register save eliminated.
 189              	.LVL12:
 190 0000 7047     		bx	lr
 191              		.cfi_endproc
 192              	.LFE127:
 194 0002 00BF     		.section	.text.HAL_PCD_Start,"ax",%progbits
 195              		.align	2
 196              		.global	HAL_PCD_Start
 197              		.thumb
 198              		.thumb_func
 200              	HAL_PCD_Start:
 201              	.LFB128:
 262:Drivers/STM32F3xx_HAL_Driver/Src/stm32f3xx_hal_pcd.c ****   /* Prevent unused argument(s) compilation warning */
 263:Drivers/STM32F3xx_HAL_Driver/Src/stm32f3xx_hal_pcd.c ****   UNUSED(hpcd);
 264:Drivers/STM32F3xx_HAL_Driver/Src/stm32f3xx_hal_pcd.c **** 
 265:Drivers/STM32F3xx_HAL_Driver/Src/stm32f3xx_hal_pcd.c ****   /* NOTE : This function should not be modified, when the callback is needed,
 266:Drivers/STM32F3xx_HAL_Driver/Src/stm32f3xx_hal_pcd.c ****             the HAL_PCD_MspDeInit could be implemented in the user file
 267:Drivers/STM32F3xx_HAL_Driver/Src/stm32f3xx_hal_pcd.c ****    */
 268:Drivers/STM32F3xx_HAL_Driver/Src/stm32f3xx_hal_pcd.c **** }
 269:Drivers/STM32F3xx_HAL_Driver/Src/stm32f3xx_hal_pcd.c **** 
 270:Drivers/STM32F3xx_HAL_Driver/Src/stm32f3xx_hal_pcd.c **** /**
 271:Drivers/STM32F3xx_HAL_Driver/Src/stm32f3xx_hal_pcd.c ****   * @}
 272:Drivers/STM32F3xx_HAL_Driver/Src/stm32f3xx_hal_pcd.c ****   */
 273:Drivers/STM32F3xx_HAL_Driver/Src/stm32f3xx_hal_pcd.c **** 
 274:Drivers/STM32F3xx_HAL_Driver/Src/stm32f3xx_hal_pcd.c **** /** @defgroup PCD_Exported_Functions_Group2 IO operation functions 
 275:Drivers/STM32F3xx_HAL_Driver/Src/stm32f3xx_hal_pcd.c ****  *  @brief   Data transfers functions 
 276:Drivers/STM32F3xx_HAL_Driver/Src/stm32f3xx_hal_pcd.c ****  *
 277:Drivers/STM32F3xx_HAL_Driver/Src/stm32f3xx_hal_pcd.c **** @verbatim   
 278:Drivers/STM32F3xx_HAL_Driver/Src/stm32f3xx_hal_pcd.c ****  ===============================================================================
 279:Drivers/STM32F3xx_HAL_Driver/Src/stm32f3xx_hal_pcd.c ****                       ##### IO operation functions #####
 280:Drivers/STM32F3xx_HAL_Driver/Src/stm32f3xx_hal_pcd.c ****  ===============================================================================  
 281:Drivers/STM32F3xx_HAL_Driver/Src/stm32f3xx_hal_pcd.c ****     [..]
 282:Drivers/STM32F3xx_HAL_Driver/Src/stm32f3xx_hal_pcd.c ****     This subsection provides a set of functions allowing to manage the PCD data 
 283:Drivers/STM32F3xx_HAL_Driver/Src/stm32f3xx_hal_pcd.c ****     transfers.
 284:Drivers/STM32F3xx_HAL_Driver/Src/stm32f3xx_hal_pcd.c **** 
 285:Drivers/STM32F3xx_HAL_Driver/Src/stm32f3xx_hal_pcd.c **** @endverbatim
 286:Drivers/STM32F3xx_HAL_Driver/Src/stm32f3xx_hal_pcd.c ****   * @{
ARM GAS  /tmp/ccwKMGBI.s 			page 10


 287:Drivers/STM32F3xx_HAL_Driver/Src/stm32f3xx_hal_pcd.c ****   */
 288:Drivers/STM32F3xx_HAL_Driver/Src/stm32f3xx_hal_pcd.c ****   
 289:Drivers/STM32F3xx_HAL_Driver/Src/stm32f3xx_hal_pcd.c **** /**
 290:Drivers/STM32F3xx_HAL_Driver/Src/stm32f3xx_hal_pcd.c ****   * @brief  Start the USB device.
 291:Drivers/STM32F3xx_HAL_Driver/Src/stm32f3xx_hal_pcd.c ****   * @param  hpcd PCD handle
 292:Drivers/STM32F3xx_HAL_Driver/Src/stm32f3xx_hal_pcd.c ****   * @retval HAL status
 293:Drivers/STM32F3xx_HAL_Driver/Src/stm32f3xx_hal_pcd.c ****   */
 294:Drivers/STM32F3xx_HAL_Driver/Src/stm32f3xx_hal_pcd.c **** HAL_StatusTypeDef HAL_PCD_Start(PCD_HandleTypeDef *hpcd)
 295:Drivers/STM32F3xx_HAL_Driver/Src/stm32f3xx_hal_pcd.c **** { 
 202              		.loc 1 295 0
 203              		.cfi_startproc
 204              		@ args = 0, pretend = 0, frame = 0
 205              		@ frame_needed = 0, uses_anonymous_args = 0
 206              	.LVL13:
 207              		.loc 1 295 0
 208 0000 08B5     		push	{r3, lr}
 209              	.LCFI2:
 210              		.cfi_def_cfa_offset 8
 211              		.cfi_offset 3, -8
 212              		.cfi_offset 14, -4
 296:Drivers/STM32F3xx_HAL_Driver/Src/stm32f3xx_hal_pcd.c ****   /*  DP Pull-Down is external */
 297:Drivers/STM32F3xx_HAL_Driver/Src/stm32f3xx_hal_pcd.c ****   HAL_PCDEx_SetConnectionState (hpcd, 1U);
 213              		.loc 1 297 0
 214 0002 0121     		movs	r1, #1
 215 0004 FFF7FEFF 		bl	HAL_PCDEx_SetConnectionState
 216              	.LVL14:
 298:Drivers/STM32F3xx_HAL_Driver/Src/stm32f3xx_hal_pcd.c ****   
 299:Drivers/STM32F3xx_HAL_Driver/Src/stm32f3xx_hal_pcd.c ****   return HAL_OK;
 300:Drivers/STM32F3xx_HAL_Driver/Src/stm32f3xx_hal_pcd.c **** }
 217              		.loc 1 300 0
 218 0008 0020     		movs	r0, #0
 219 000a 08BD     		pop	{r3, pc}
 220              		.cfi_endproc
 221              	.LFE128:
 223              		.section	.text.HAL_PCD_Stop,"ax",%progbits
 224              		.align	2
 225              		.global	HAL_PCD_Stop
 226              		.thumb
 227              		.thumb_func
 229              	HAL_PCD_Stop:
 230              	.LFB129:
 301:Drivers/STM32F3xx_HAL_Driver/Src/stm32f3xx_hal_pcd.c **** 
 302:Drivers/STM32F3xx_HAL_Driver/Src/stm32f3xx_hal_pcd.c **** /**
 303:Drivers/STM32F3xx_HAL_Driver/Src/stm32f3xx_hal_pcd.c ****   * @brief  Stop the USB device.
 304:Drivers/STM32F3xx_HAL_Driver/Src/stm32f3xx_hal_pcd.c ****   * @param  hpcd PCD handle
 305:Drivers/STM32F3xx_HAL_Driver/Src/stm32f3xx_hal_pcd.c ****   * @retval HAL status
 306:Drivers/STM32F3xx_HAL_Driver/Src/stm32f3xx_hal_pcd.c ****   */
 307:Drivers/STM32F3xx_HAL_Driver/Src/stm32f3xx_hal_pcd.c **** HAL_StatusTypeDef HAL_PCD_Stop(PCD_HandleTypeDef *hpcd)
 308:Drivers/STM32F3xx_HAL_Driver/Src/stm32f3xx_hal_pcd.c **** { 
 231              		.loc 1 308 0
 232              		.cfi_startproc
 233              		@ args = 0, pretend = 0, frame = 0
 234              		@ frame_needed = 0, uses_anonymous_args = 0
 235              		@ link register save eliminated.
 236              	.LVL15:
 309:Drivers/STM32F3xx_HAL_Driver/Src/stm32f3xx_hal_pcd.c ****   __HAL_LOCK(hpcd); 
 237              		.loc 1 309 0
ARM GAS  /tmp/ccwKMGBI.s 			page 11


 238 0000 90F87033 		ldrb	r3, [r0, #880]	@ zero_extendqisi2
 239 0004 012B     		cmp	r3, #1
 240 0006 0FD0     		beq	.L17
 310:Drivers/STM32F3xx_HAL_Driver/Src/stm32f3xx_hal_pcd.c ****   
 311:Drivers/STM32F3xx_HAL_Driver/Src/stm32f3xx_hal_pcd.c ****     /* disable all interrupts and force USB reset */
 312:Drivers/STM32F3xx_HAL_Driver/Src/stm32f3xx_hal_pcd.c ****   hpcd->Instance->CNTR = USB_CNTR_FRES;
 241              		.loc 1 312 0 discriminator 2
 242 0008 0368     		ldr	r3, [r0]
 243 000a 0122     		movs	r2, #1
 244 000c A3F84020 		strh	r2, [r3, #64]	@ movhi
 313:Drivers/STM32F3xx_HAL_Driver/Src/stm32f3xx_hal_pcd.c ****   
 314:Drivers/STM32F3xx_HAL_Driver/Src/stm32f3xx_hal_pcd.c ****   /* clear interrupt status register */
 315:Drivers/STM32F3xx_HAL_Driver/Src/stm32f3xx_hal_pcd.c ****   hpcd->Instance->ISTR = 0U;
 245              		.loc 1 315 0 discriminator 2
 246 0010 0268     		ldr	r2, [r0]
 247 0012 0023     		movs	r3, #0
 248 0014 A2F84430 		strh	r3, [r2, #68]	@ movhi
 316:Drivers/STM32F3xx_HAL_Driver/Src/stm32f3xx_hal_pcd.c ****   
 317:Drivers/STM32F3xx_HAL_Driver/Src/stm32f3xx_hal_pcd.c ****   /* switch-off device */
 318:Drivers/STM32F3xx_HAL_Driver/Src/stm32f3xx_hal_pcd.c ****   hpcd->Instance->CNTR = (USB_CNTR_FRES | USB_CNTR_PDWN);
 249              		.loc 1 318 0 discriminator 2
 250 0018 0268     		ldr	r2, [r0]
 251 001a 0321     		movs	r1, #3
 252 001c A2F84010 		strh	r1, [r2, #64]	@ movhi
 319:Drivers/STM32F3xx_HAL_Driver/Src/stm32f3xx_hal_pcd.c ****   
 320:Drivers/STM32F3xx_HAL_Driver/Src/stm32f3xx_hal_pcd.c ****   __HAL_UNLOCK(hpcd); 
 253              		.loc 1 320 0 discriminator 2
 254 0020 80F87033 		strb	r3, [r0, #880]
 321:Drivers/STM32F3xx_HAL_Driver/Src/stm32f3xx_hal_pcd.c ****   return HAL_OK;
 255              		.loc 1 321 0 discriminator 2
 256 0024 1846     		mov	r0, r3
 257              	.LVL16:
 258 0026 7047     		bx	lr
 259              	.LVL17:
 260              	.L17:
 309:Drivers/STM32F3xx_HAL_Driver/Src/stm32f3xx_hal_pcd.c ****   
 261              		.loc 1 309 0
 262 0028 0220     		movs	r0, #2
 263              	.LVL18:
 322:Drivers/STM32F3xx_HAL_Driver/Src/stm32f3xx_hal_pcd.c **** }
 264              		.loc 1 322 0
 265 002a 7047     		bx	lr
 266              		.cfi_endproc
 267              	.LFE129:
 269              		.section	.text.HAL_PCD_DeInit,"ax",%progbits
 270              		.align	2
 271              		.global	HAL_PCD_DeInit
 272              		.thumb
 273              		.thumb_func
 275              	HAL_PCD_DeInit:
 276              	.LFB125:
 220:Drivers/STM32F3xx_HAL_Driver/Src/stm32f3xx_hal_pcd.c ****   /* Check the PCD handle allocation */
 277              		.loc 1 220 0
 278              		.cfi_startproc
 279              		@ args = 0, pretend = 0, frame = 0
 280              		@ frame_needed = 0, uses_anonymous_args = 0
 281              	.LVL19:
ARM GAS  /tmp/ccwKMGBI.s 			page 12


 222:Drivers/STM32F3xx_HAL_Driver/Src/stm32f3xx_hal_pcd.c ****   {
 282              		.loc 1 222 0
 283 0000 68B1     		cbz	r0, .L20
 220:Drivers/STM32F3xx_HAL_Driver/Src/stm32f3xx_hal_pcd.c ****   /* Check the PCD handle allocation */
 284              		.loc 1 220 0
 285 0002 10B5     		push	{r4, lr}
 286              	.LCFI3:
 287              		.cfi_def_cfa_offset 8
 288              		.cfi_offset 4, -8
 289              		.cfi_offset 14, -4
 290 0004 0446     		mov	r4, r0
 227:Drivers/STM32F3xx_HAL_Driver/Src/stm32f3xx_hal_pcd.c ****   
 291              		.loc 1 227 0
 292 0006 0323     		movs	r3, #3
 293 0008 80F87133 		strb	r3, [r0, #881]
 230:Drivers/STM32F3xx_HAL_Driver/Src/stm32f3xx_hal_pcd.c ****     
 294              		.loc 1 230 0
 295 000c FFF7FEFF 		bl	HAL_PCD_Stop
 296              	.LVL20:
 233:Drivers/STM32F3xx_HAL_Driver/Src/stm32f3xx_hal_pcd.c ****   
 297              		.loc 1 233 0
 298 0010 2046     		mov	r0, r4
 299 0012 FFF7FEFF 		bl	HAL_PCD_MspDeInit
 300              	.LVL21:
 235:Drivers/STM32F3xx_HAL_Driver/Src/stm32f3xx_hal_pcd.c ****   
 301              		.loc 1 235 0
 302 0016 0020     		movs	r0, #0
 303 0018 84F87103 		strb	r0, [r4, #881]
 237:Drivers/STM32F3xx_HAL_Driver/Src/stm32f3xx_hal_pcd.c **** }
 304              		.loc 1 237 0
 305 001c 10BD     		pop	{r4, pc}
 306              	.LVL22:
 307              	.L20:
 308              	.LCFI4:
 309              		.cfi_def_cfa_offset 0
 310              		.cfi_restore 4
 311              		.cfi_restore 14
 224:Drivers/STM32F3xx_HAL_Driver/Src/stm32f3xx_hal_pcd.c ****   }
 312              		.loc 1 224 0
 313 001e 0120     		movs	r0, #1
 314              	.LVL23:
 315 0020 7047     		bx	lr
 316              		.cfi_endproc
 317              	.LFE125:
 319 0022 00BF     		.section	.text.HAL_PCD_DataOutStageCallback,"ax",%progbits
 320              		.align	2
 321              		.weak	HAL_PCD_DataOutStageCallback
 322              		.thumb
 323              		.thumb_func
 325              	HAL_PCD_DataOutStageCallback:
 326              	.LFB132:
 323:Drivers/STM32F3xx_HAL_Driver/Src/stm32f3xx_hal_pcd.c **** /**
 324:Drivers/STM32F3xx_HAL_Driver/Src/stm32f3xx_hal_pcd.c ****   * @}
 325:Drivers/STM32F3xx_HAL_Driver/Src/stm32f3xx_hal_pcd.c ****   */
 326:Drivers/STM32F3xx_HAL_Driver/Src/stm32f3xx_hal_pcd.c ****   
 327:Drivers/STM32F3xx_HAL_Driver/Src/stm32f3xx_hal_pcd.c **** /**
 328:Drivers/STM32F3xx_HAL_Driver/Src/stm32f3xx_hal_pcd.c ****   * @}
ARM GAS  /tmp/ccwKMGBI.s 			page 13


 329:Drivers/STM32F3xx_HAL_Driver/Src/stm32f3xx_hal_pcd.c ****   */  
 330:Drivers/STM32F3xx_HAL_Driver/Src/stm32f3xx_hal_pcd.c **** 
 331:Drivers/STM32F3xx_HAL_Driver/Src/stm32f3xx_hal_pcd.c **** /** @addtogroup PCD_Private_Functions PCD Private Functions
 332:Drivers/STM32F3xx_HAL_Driver/Src/stm32f3xx_hal_pcd.c ****   * @{
 333:Drivers/STM32F3xx_HAL_Driver/Src/stm32f3xx_hal_pcd.c ****   */
 334:Drivers/STM32F3xx_HAL_Driver/Src/stm32f3xx_hal_pcd.c **** /**
 335:Drivers/STM32F3xx_HAL_Driver/Src/stm32f3xx_hal_pcd.c ****   * @brief  This function handles PCD Endpoint interrupt request.
 336:Drivers/STM32F3xx_HAL_Driver/Src/stm32f3xx_hal_pcd.c ****   * @param  hpcd PCD handle
 337:Drivers/STM32F3xx_HAL_Driver/Src/stm32f3xx_hal_pcd.c ****   * @retval HAL status
 338:Drivers/STM32F3xx_HAL_Driver/Src/stm32f3xx_hal_pcd.c ****   */
 339:Drivers/STM32F3xx_HAL_Driver/Src/stm32f3xx_hal_pcd.c **** static HAL_StatusTypeDef PCD_EP_ISR_Handler(PCD_HandleTypeDef *hpcd)
 340:Drivers/STM32F3xx_HAL_Driver/Src/stm32f3xx_hal_pcd.c **** {
 341:Drivers/STM32F3xx_HAL_Driver/Src/stm32f3xx_hal_pcd.c ****   PCD_EPTypeDef *ep;
 342:Drivers/STM32F3xx_HAL_Driver/Src/stm32f3xx_hal_pcd.c ****   uint16_t count=0U;
 343:Drivers/STM32F3xx_HAL_Driver/Src/stm32f3xx_hal_pcd.c ****   uint8_t EPindex;
 344:Drivers/STM32F3xx_HAL_Driver/Src/stm32f3xx_hal_pcd.c ****   __IO uint16_t wIstr;  
 345:Drivers/STM32F3xx_HAL_Driver/Src/stm32f3xx_hal_pcd.c ****   __IO uint16_t wEPVal = 0U;
 346:Drivers/STM32F3xx_HAL_Driver/Src/stm32f3xx_hal_pcd.c ****   
 347:Drivers/STM32F3xx_HAL_Driver/Src/stm32f3xx_hal_pcd.c ****   /* stay in loop while pending interrupts */
 348:Drivers/STM32F3xx_HAL_Driver/Src/stm32f3xx_hal_pcd.c ****   while (((wIstr = hpcd->Instance->ISTR) & USB_ISTR_CTR) != 0U)
 349:Drivers/STM32F3xx_HAL_Driver/Src/stm32f3xx_hal_pcd.c ****   {
 350:Drivers/STM32F3xx_HAL_Driver/Src/stm32f3xx_hal_pcd.c ****     /* extract highest priority endpoint number */
 351:Drivers/STM32F3xx_HAL_Driver/Src/stm32f3xx_hal_pcd.c ****     EPindex = (uint8_t)(wIstr & USB_ISTR_EP_ID);
 352:Drivers/STM32F3xx_HAL_Driver/Src/stm32f3xx_hal_pcd.c ****     
 353:Drivers/STM32F3xx_HAL_Driver/Src/stm32f3xx_hal_pcd.c ****     if (EPindex == 0U)
 354:Drivers/STM32F3xx_HAL_Driver/Src/stm32f3xx_hal_pcd.c ****     {
 355:Drivers/STM32F3xx_HAL_Driver/Src/stm32f3xx_hal_pcd.c ****       /* Decode and service control endpoint interrupt */
 356:Drivers/STM32F3xx_HAL_Driver/Src/stm32f3xx_hal_pcd.c ****       
 357:Drivers/STM32F3xx_HAL_Driver/Src/stm32f3xx_hal_pcd.c ****       /* DIR bit = origin of the interrupt */   
 358:Drivers/STM32F3xx_HAL_Driver/Src/stm32f3xx_hal_pcd.c ****       if ((wIstr & USB_ISTR_DIR) == 0U)
 359:Drivers/STM32F3xx_HAL_Driver/Src/stm32f3xx_hal_pcd.c ****       {
 360:Drivers/STM32F3xx_HAL_Driver/Src/stm32f3xx_hal_pcd.c ****         /* DIR = 0U */
 361:Drivers/STM32F3xx_HAL_Driver/Src/stm32f3xx_hal_pcd.c ****         
 362:Drivers/STM32F3xx_HAL_Driver/Src/stm32f3xx_hal_pcd.c ****         /* DIR = 0      => IN  int */
 363:Drivers/STM32F3xx_HAL_Driver/Src/stm32f3xx_hal_pcd.c ****         /* DIR = 0 implies that (EP_CTR_TX = 1U) always  */
 364:Drivers/STM32F3xx_HAL_Driver/Src/stm32f3xx_hal_pcd.c ****         PCD_CLEAR_TX_EP_CTR(hpcd->Instance, PCD_ENDP0);
 365:Drivers/STM32F3xx_HAL_Driver/Src/stm32f3xx_hal_pcd.c ****         ep = &hpcd->IN_ep[0];
 366:Drivers/STM32F3xx_HAL_Driver/Src/stm32f3xx_hal_pcd.c ****         
 367:Drivers/STM32F3xx_HAL_Driver/Src/stm32f3xx_hal_pcd.c ****         ep->xfer_count = PCD_GET_EP_TX_CNT(hpcd->Instance, ep->num);
 368:Drivers/STM32F3xx_HAL_Driver/Src/stm32f3xx_hal_pcd.c ****         ep->xfer_buff += ep->xfer_count;
 369:Drivers/STM32F3xx_HAL_Driver/Src/stm32f3xx_hal_pcd.c ****  
 370:Drivers/STM32F3xx_HAL_Driver/Src/stm32f3xx_hal_pcd.c ****         /* TX COMPLETE */
 371:Drivers/STM32F3xx_HAL_Driver/Src/stm32f3xx_hal_pcd.c ****         HAL_PCD_DataInStageCallback(hpcd, 0U);
 372:Drivers/STM32F3xx_HAL_Driver/Src/stm32f3xx_hal_pcd.c ****         
 373:Drivers/STM32F3xx_HAL_Driver/Src/stm32f3xx_hal_pcd.c ****         
 374:Drivers/STM32F3xx_HAL_Driver/Src/stm32f3xx_hal_pcd.c ****         if((hpcd->USB_Address > 0U)&& ( ep->xfer_len == 0U))
 375:Drivers/STM32F3xx_HAL_Driver/Src/stm32f3xx_hal_pcd.c ****         {
 376:Drivers/STM32F3xx_HAL_Driver/Src/stm32f3xx_hal_pcd.c ****           hpcd->Instance->DADDR = (hpcd->USB_Address | USB_DADDR_EF);
 377:Drivers/STM32F3xx_HAL_Driver/Src/stm32f3xx_hal_pcd.c ****           hpcd->USB_Address = 0U;
 378:Drivers/STM32F3xx_HAL_Driver/Src/stm32f3xx_hal_pcd.c ****         }
 379:Drivers/STM32F3xx_HAL_Driver/Src/stm32f3xx_hal_pcd.c ****         
 380:Drivers/STM32F3xx_HAL_Driver/Src/stm32f3xx_hal_pcd.c ****       }
 381:Drivers/STM32F3xx_HAL_Driver/Src/stm32f3xx_hal_pcd.c ****       else
 382:Drivers/STM32F3xx_HAL_Driver/Src/stm32f3xx_hal_pcd.c ****       {
 383:Drivers/STM32F3xx_HAL_Driver/Src/stm32f3xx_hal_pcd.c ****         /* DIR = 1U */
 384:Drivers/STM32F3xx_HAL_Driver/Src/stm32f3xx_hal_pcd.c ****         
 385:Drivers/STM32F3xx_HAL_Driver/Src/stm32f3xx_hal_pcd.c ****         /* DIR = 1U & CTR_RX       => SETUP or OUT int */
ARM GAS  /tmp/ccwKMGBI.s 			page 14


 386:Drivers/STM32F3xx_HAL_Driver/Src/stm32f3xx_hal_pcd.c ****         /* DIR = 1U & (CTR_TX | CTR_RX) => 2 int pending */
 387:Drivers/STM32F3xx_HAL_Driver/Src/stm32f3xx_hal_pcd.c ****         ep = &hpcd->OUT_ep[0];
 388:Drivers/STM32F3xx_HAL_Driver/Src/stm32f3xx_hal_pcd.c ****         wEPVal = PCD_GET_ENDPOINT(hpcd->Instance, PCD_ENDP0);
 389:Drivers/STM32F3xx_HAL_Driver/Src/stm32f3xx_hal_pcd.c ****         
 390:Drivers/STM32F3xx_HAL_Driver/Src/stm32f3xx_hal_pcd.c ****         if ((wEPVal & USB_EP_SETUP) != 0U)
 391:Drivers/STM32F3xx_HAL_Driver/Src/stm32f3xx_hal_pcd.c ****         {
 392:Drivers/STM32F3xx_HAL_Driver/Src/stm32f3xx_hal_pcd.c ****           /* Get SETUP Packet*/
 393:Drivers/STM32F3xx_HAL_Driver/Src/stm32f3xx_hal_pcd.c ****           ep->xfer_count = PCD_GET_EP_RX_CNT(hpcd->Instance, ep->num);
 394:Drivers/STM32F3xx_HAL_Driver/Src/stm32f3xx_hal_pcd.c ****           PCD_ReadPMA(hpcd->Instance, (uint8_t*)(void*)hpcd->Setup ,ep->pmaadress , ep->xfer_count)
 395:Drivers/STM32F3xx_HAL_Driver/Src/stm32f3xx_hal_pcd.c ****           /* SETUP bit kept frozen while CTR_RX = 1U*/ 
 396:Drivers/STM32F3xx_HAL_Driver/Src/stm32f3xx_hal_pcd.c ****           PCD_CLEAR_RX_EP_CTR(hpcd->Instance, PCD_ENDP0); 
 397:Drivers/STM32F3xx_HAL_Driver/Src/stm32f3xx_hal_pcd.c ****           
 398:Drivers/STM32F3xx_HAL_Driver/Src/stm32f3xx_hal_pcd.c ****           /* Process SETUP Packet*/
 399:Drivers/STM32F3xx_HAL_Driver/Src/stm32f3xx_hal_pcd.c ****           HAL_PCD_SetupStageCallback(hpcd);
 400:Drivers/STM32F3xx_HAL_Driver/Src/stm32f3xx_hal_pcd.c ****         }
 401:Drivers/STM32F3xx_HAL_Driver/Src/stm32f3xx_hal_pcd.c ****         
 402:Drivers/STM32F3xx_HAL_Driver/Src/stm32f3xx_hal_pcd.c ****         else if ((wEPVal & USB_EP_CTR_RX) != 0U)
 403:Drivers/STM32F3xx_HAL_Driver/Src/stm32f3xx_hal_pcd.c ****         {
 404:Drivers/STM32F3xx_HAL_Driver/Src/stm32f3xx_hal_pcd.c ****           PCD_CLEAR_RX_EP_CTR(hpcd->Instance, PCD_ENDP0);
 405:Drivers/STM32F3xx_HAL_Driver/Src/stm32f3xx_hal_pcd.c ****           /* Get Control Data OUT Packet*/
 406:Drivers/STM32F3xx_HAL_Driver/Src/stm32f3xx_hal_pcd.c ****           ep->xfer_count = PCD_GET_EP_RX_CNT(hpcd->Instance, ep->num);
 407:Drivers/STM32F3xx_HAL_Driver/Src/stm32f3xx_hal_pcd.c ****           
 408:Drivers/STM32F3xx_HAL_Driver/Src/stm32f3xx_hal_pcd.c ****           if (ep->xfer_count != 0U)
 409:Drivers/STM32F3xx_HAL_Driver/Src/stm32f3xx_hal_pcd.c ****           {
 410:Drivers/STM32F3xx_HAL_Driver/Src/stm32f3xx_hal_pcd.c ****             PCD_ReadPMA(hpcd->Instance, ep->xfer_buff, ep->pmaadress, ep->xfer_count);
 411:Drivers/STM32F3xx_HAL_Driver/Src/stm32f3xx_hal_pcd.c ****             ep->xfer_buff+=ep->xfer_count;
 412:Drivers/STM32F3xx_HAL_Driver/Src/stm32f3xx_hal_pcd.c ****           }
 413:Drivers/STM32F3xx_HAL_Driver/Src/stm32f3xx_hal_pcd.c ****           
 414:Drivers/STM32F3xx_HAL_Driver/Src/stm32f3xx_hal_pcd.c ****           /* Process Control Data OUT Packet*/
 415:Drivers/STM32F3xx_HAL_Driver/Src/stm32f3xx_hal_pcd.c ****            HAL_PCD_DataOutStageCallback(hpcd, 0U);
 416:Drivers/STM32F3xx_HAL_Driver/Src/stm32f3xx_hal_pcd.c ****           
 417:Drivers/STM32F3xx_HAL_Driver/Src/stm32f3xx_hal_pcd.c ****           PCD_SET_EP_RX_CNT(hpcd->Instance, PCD_ENDP0, ep->maxpacket)
 418:Drivers/STM32F3xx_HAL_Driver/Src/stm32f3xx_hal_pcd.c ****           PCD_SET_EP_RX_STATUS(hpcd->Instance, PCD_ENDP0, USB_EP_RX_VALID)
 419:Drivers/STM32F3xx_HAL_Driver/Src/stm32f3xx_hal_pcd.c ****         }
 420:Drivers/STM32F3xx_HAL_Driver/Src/stm32f3xx_hal_pcd.c ****       }
 421:Drivers/STM32F3xx_HAL_Driver/Src/stm32f3xx_hal_pcd.c ****     }
 422:Drivers/STM32F3xx_HAL_Driver/Src/stm32f3xx_hal_pcd.c ****     else
 423:Drivers/STM32F3xx_HAL_Driver/Src/stm32f3xx_hal_pcd.c ****     {
 424:Drivers/STM32F3xx_HAL_Driver/Src/stm32f3xx_hal_pcd.c ****       
 425:Drivers/STM32F3xx_HAL_Driver/Src/stm32f3xx_hal_pcd.c ****       /* Decode and service non control endpoints interrupt  */
 426:Drivers/STM32F3xx_HAL_Driver/Src/stm32f3xx_hal_pcd.c ****       
 427:Drivers/STM32F3xx_HAL_Driver/Src/stm32f3xx_hal_pcd.c ****       /* process related endpoint register */
 428:Drivers/STM32F3xx_HAL_Driver/Src/stm32f3xx_hal_pcd.c ****       wEPVal = PCD_GET_ENDPOINT(hpcd->Instance, EPindex);
 429:Drivers/STM32F3xx_HAL_Driver/Src/stm32f3xx_hal_pcd.c ****       if ((wEPVal & USB_EP_CTR_RX) != 0U)
 430:Drivers/STM32F3xx_HAL_Driver/Src/stm32f3xx_hal_pcd.c ****       {  
 431:Drivers/STM32F3xx_HAL_Driver/Src/stm32f3xx_hal_pcd.c ****         /* clear int flag */
 432:Drivers/STM32F3xx_HAL_Driver/Src/stm32f3xx_hal_pcd.c ****         PCD_CLEAR_RX_EP_CTR(hpcd->Instance, EPindex);
 433:Drivers/STM32F3xx_HAL_Driver/Src/stm32f3xx_hal_pcd.c ****         ep = &hpcd->OUT_ep[EPindex];
 434:Drivers/STM32F3xx_HAL_Driver/Src/stm32f3xx_hal_pcd.c ****         
 435:Drivers/STM32F3xx_HAL_Driver/Src/stm32f3xx_hal_pcd.c ****         /* OUT double Buffering*/
 436:Drivers/STM32F3xx_HAL_Driver/Src/stm32f3xx_hal_pcd.c ****         if (ep->doublebuffer == 0U)
 437:Drivers/STM32F3xx_HAL_Driver/Src/stm32f3xx_hal_pcd.c ****         {
 438:Drivers/STM32F3xx_HAL_Driver/Src/stm32f3xx_hal_pcd.c ****           count = PCD_GET_EP_RX_CNT(hpcd->Instance, ep->num);
 439:Drivers/STM32F3xx_HAL_Driver/Src/stm32f3xx_hal_pcd.c ****           if (count != 0U)
 440:Drivers/STM32F3xx_HAL_Driver/Src/stm32f3xx_hal_pcd.c ****           {
 441:Drivers/STM32F3xx_HAL_Driver/Src/stm32f3xx_hal_pcd.c ****             PCD_ReadPMA(hpcd->Instance, ep->xfer_buff, ep->pmaadress, count);
 442:Drivers/STM32F3xx_HAL_Driver/Src/stm32f3xx_hal_pcd.c ****           }
ARM GAS  /tmp/ccwKMGBI.s 			page 15


 443:Drivers/STM32F3xx_HAL_Driver/Src/stm32f3xx_hal_pcd.c ****         }
 444:Drivers/STM32F3xx_HAL_Driver/Src/stm32f3xx_hal_pcd.c ****         else
 445:Drivers/STM32F3xx_HAL_Driver/Src/stm32f3xx_hal_pcd.c ****         {
 446:Drivers/STM32F3xx_HAL_Driver/Src/stm32f3xx_hal_pcd.c ****           if ((PCD_GET_ENDPOINT(hpcd->Instance, ep->num)& USB_EP_DTOG_RX) == USB_EP_DTOG_RX)
 447:Drivers/STM32F3xx_HAL_Driver/Src/stm32f3xx_hal_pcd.c ****           {
 448:Drivers/STM32F3xx_HAL_Driver/Src/stm32f3xx_hal_pcd.c ****             /*read from endpoint BUF0Addr buffer*/
 449:Drivers/STM32F3xx_HAL_Driver/Src/stm32f3xx_hal_pcd.c ****             count = PCD_GET_EP_DBUF0_CNT(hpcd->Instance, ep->num);
 450:Drivers/STM32F3xx_HAL_Driver/Src/stm32f3xx_hal_pcd.c ****             if (count != 0U)
 451:Drivers/STM32F3xx_HAL_Driver/Src/stm32f3xx_hal_pcd.c ****             {
 452:Drivers/STM32F3xx_HAL_Driver/Src/stm32f3xx_hal_pcd.c ****               PCD_ReadPMA(hpcd->Instance, ep->xfer_buff, ep->pmaaddr0, count);
 453:Drivers/STM32F3xx_HAL_Driver/Src/stm32f3xx_hal_pcd.c ****             }
 454:Drivers/STM32F3xx_HAL_Driver/Src/stm32f3xx_hal_pcd.c ****           }
 455:Drivers/STM32F3xx_HAL_Driver/Src/stm32f3xx_hal_pcd.c ****           else
 456:Drivers/STM32F3xx_HAL_Driver/Src/stm32f3xx_hal_pcd.c ****           {
 457:Drivers/STM32F3xx_HAL_Driver/Src/stm32f3xx_hal_pcd.c ****             /*read from endpoint BUF1Addr buffer*/
 458:Drivers/STM32F3xx_HAL_Driver/Src/stm32f3xx_hal_pcd.c ****             count = PCD_GET_EP_DBUF1_CNT(hpcd->Instance, ep->num);
 459:Drivers/STM32F3xx_HAL_Driver/Src/stm32f3xx_hal_pcd.c ****             if (count != 0U)
 460:Drivers/STM32F3xx_HAL_Driver/Src/stm32f3xx_hal_pcd.c ****             {
 461:Drivers/STM32F3xx_HAL_Driver/Src/stm32f3xx_hal_pcd.c ****               PCD_ReadPMA(hpcd->Instance, ep->xfer_buff, ep->pmaaddr1, count);
 462:Drivers/STM32F3xx_HAL_Driver/Src/stm32f3xx_hal_pcd.c ****             }
 463:Drivers/STM32F3xx_HAL_Driver/Src/stm32f3xx_hal_pcd.c ****           }
 464:Drivers/STM32F3xx_HAL_Driver/Src/stm32f3xx_hal_pcd.c ****           PCD_FreeUserBuffer(hpcd->Instance, ep->num, PCD_EP_DBUF_OUT)  
 465:Drivers/STM32F3xx_HAL_Driver/Src/stm32f3xx_hal_pcd.c ****         }
 466:Drivers/STM32F3xx_HAL_Driver/Src/stm32f3xx_hal_pcd.c ****         /*multi-packet on the NON control OUT endpoint*/
 467:Drivers/STM32F3xx_HAL_Driver/Src/stm32f3xx_hal_pcd.c ****         ep->xfer_count+=count;
 468:Drivers/STM32F3xx_HAL_Driver/Src/stm32f3xx_hal_pcd.c ****         ep->xfer_buff+=count;
 469:Drivers/STM32F3xx_HAL_Driver/Src/stm32f3xx_hal_pcd.c ****        
 470:Drivers/STM32F3xx_HAL_Driver/Src/stm32f3xx_hal_pcd.c ****         if ((ep->xfer_len == 0U) || (count < ep->maxpacket))
 471:Drivers/STM32F3xx_HAL_Driver/Src/stm32f3xx_hal_pcd.c ****         {
 472:Drivers/STM32F3xx_HAL_Driver/Src/stm32f3xx_hal_pcd.c ****           /* RX COMPLETE */
 473:Drivers/STM32F3xx_HAL_Driver/Src/stm32f3xx_hal_pcd.c ****           HAL_PCD_DataOutStageCallback(hpcd, ep->num);
 474:Drivers/STM32F3xx_HAL_Driver/Src/stm32f3xx_hal_pcd.c ****         }
 475:Drivers/STM32F3xx_HAL_Driver/Src/stm32f3xx_hal_pcd.c ****         else
 476:Drivers/STM32F3xx_HAL_Driver/Src/stm32f3xx_hal_pcd.c ****         {
 477:Drivers/STM32F3xx_HAL_Driver/Src/stm32f3xx_hal_pcd.c ****           HAL_PCD_EP_Receive(hpcd, ep->num, ep->xfer_buff, ep->xfer_len);
 478:Drivers/STM32F3xx_HAL_Driver/Src/stm32f3xx_hal_pcd.c ****         }
 479:Drivers/STM32F3xx_HAL_Driver/Src/stm32f3xx_hal_pcd.c ****         
 480:Drivers/STM32F3xx_HAL_Driver/Src/stm32f3xx_hal_pcd.c ****       } /* if((wEPVal & EP_CTR_RX) */
 481:Drivers/STM32F3xx_HAL_Driver/Src/stm32f3xx_hal_pcd.c ****       
 482:Drivers/STM32F3xx_HAL_Driver/Src/stm32f3xx_hal_pcd.c ****       if ((wEPVal & USB_EP_CTR_TX) != 0U)
 483:Drivers/STM32F3xx_HAL_Driver/Src/stm32f3xx_hal_pcd.c ****       {
 484:Drivers/STM32F3xx_HAL_Driver/Src/stm32f3xx_hal_pcd.c ****         ep = &hpcd->IN_ep[EPindex];
 485:Drivers/STM32F3xx_HAL_Driver/Src/stm32f3xx_hal_pcd.c ****         
 486:Drivers/STM32F3xx_HAL_Driver/Src/stm32f3xx_hal_pcd.c ****         /* clear int flag */
 487:Drivers/STM32F3xx_HAL_Driver/Src/stm32f3xx_hal_pcd.c ****         PCD_CLEAR_TX_EP_CTR(hpcd->Instance, EPindex);
 488:Drivers/STM32F3xx_HAL_Driver/Src/stm32f3xx_hal_pcd.c ****         
 489:Drivers/STM32F3xx_HAL_Driver/Src/stm32f3xx_hal_pcd.c ****         /* IN double Buffering*/
 490:Drivers/STM32F3xx_HAL_Driver/Src/stm32f3xx_hal_pcd.c ****         if (ep->doublebuffer == 0U)
 491:Drivers/STM32F3xx_HAL_Driver/Src/stm32f3xx_hal_pcd.c ****         {
 492:Drivers/STM32F3xx_HAL_Driver/Src/stm32f3xx_hal_pcd.c ****           ep->xfer_count = PCD_GET_EP_TX_CNT(hpcd->Instance, ep->num);
 493:Drivers/STM32F3xx_HAL_Driver/Src/stm32f3xx_hal_pcd.c ****           if (ep->xfer_count != 0U)
 494:Drivers/STM32F3xx_HAL_Driver/Src/stm32f3xx_hal_pcd.c ****           {
 495:Drivers/STM32F3xx_HAL_Driver/Src/stm32f3xx_hal_pcd.c ****             PCD_WritePMA(hpcd->Instance, ep->xfer_buff, ep->pmaadress, ep->xfer_count);
 496:Drivers/STM32F3xx_HAL_Driver/Src/stm32f3xx_hal_pcd.c ****           }
 497:Drivers/STM32F3xx_HAL_Driver/Src/stm32f3xx_hal_pcd.c ****         }
 498:Drivers/STM32F3xx_HAL_Driver/Src/stm32f3xx_hal_pcd.c ****         else
 499:Drivers/STM32F3xx_HAL_Driver/Src/stm32f3xx_hal_pcd.c ****         {
ARM GAS  /tmp/ccwKMGBI.s 			page 16


 500:Drivers/STM32F3xx_HAL_Driver/Src/stm32f3xx_hal_pcd.c ****           if ((PCD_GET_ENDPOINT(hpcd->Instance, ep->num)& USB_EP_DTOG_TX) == USB_EP_DTOG_TX)
 501:Drivers/STM32F3xx_HAL_Driver/Src/stm32f3xx_hal_pcd.c ****           {
 502:Drivers/STM32F3xx_HAL_Driver/Src/stm32f3xx_hal_pcd.c ****             /*read from endpoint BUF0Addr buffer*/
 503:Drivers/STM32F3xx_HAL_Driver/Src/stm32f3xx_hal_pcd.c ****             ep->xfer_count = PCD_GET_EP_DBUF0_CNT(hpcd->Instance, ep->num);
 504:Drivers/STM32F3xx_HAL_Driver/Src/stm32f3xx_hal_pcd.c ****             if (ep->xfer_count != 0U)
 505:Drivers/STM32F3xx_HAL_Driver/Src/stm32f3xx_hal_pcd.c ****             {
 506:Drivers/STM32F3xx_HAL_Driver/Src/stm32f3xx_hal_pcd.c ****               PCD_WritePMA(hpcd->Instance, ep->xfer_buff, ep->pmaaddr0, ep->xfer_count);
 507:Drivers/STM32F3xx_HAL_Driver/Src/stm32f3xx_hal_pcd.c ****             }
 508:Drivers/STM32F3xx_HAL_Driver/Src/stm32f3xx_hal_pcd.c ****           }
 509:Drivers/STM32F3xx_HAL_Driver/Src/stm32f3xx_hal_pcd.c ****           else
 510:Drivers/STM32F3xx_HAL_Driver/Src/stm32f3xx_hal_pcd.c ****           {
 511:Drivers/STM32F3xx_HAL_Driver/Src/stm32f3xx_hal_pcd.c ****             /*read from endpoint BUF1Addr buffer*/
 512:Drivers/STM32F3xx_HAL_Driver/Src/stm32f3xx_hal_pcd.c ****             ep->xfer_count = PCD_GET_EP_DBUF1_CNT(hpcd->Instance, ep->num);
 513:Drivers/STM32F3xx_HAL_Driver/Src/stm32f3xx_hal_pcd.c ****             if (ep->xfer_count != 0U)
 514:Drivers/STM32F3xx_HAL_Driver/Src/stm32f3xx_hal_pcd.c ****             {
 515:Drivers/STM32F3xx_HAL_Driver/Src/stm32f3xx_hal_pcd.c ****               PCD_WritePMA(hpcd->Instance, ep->xfer_buff, ep->pmaaddr1, ep->xfer_count);
 516:Drivers/STM32F3xx_HAL_Driver/Src/stm32f3xx_hal_pcd.c ****             }
 517:Drivers/STM32F3xx_HAL_Driver/Src/stm32f3xx_hal_pcd.c ****           }
 518:Drivers/STM32F3xx_HAL_Driver/Src/stm32f3xx_hal_pcd.c ****           PCD_FreeUserBuffer(hpcd->Instance, ep->num, PCD_EP_DBUF_IN)  
 519:Drivers/STM32F3xx_HAL_Driver/Src/stm32f3xx_hal_pcd.c ****         }
 520:Drivers/STM32F3xx_HAL_Driver/Src/stm32f3xx_hal_pcd.c ****         /*multi-packet on the NON control IN endpoint*/
 521:Drivers/STM32F3xx_HAL_Driver/Src/stm32f3xx_hal_pcd.c ****         ep->xfer_count = PCD_GET_EP_TX_CNT(hpcd->Instance, ep->num);
 522:Drivers/STM32F3xx_HAL_Driver/Src/stm32f3xx_hal_pcd.c ****         ep->xfer_buff+=ep->xfer_count;
 523:Drivers/STM32F3xx_HAL_Driver/Src/stm32f3xx_hal_pcd.c ****        
 524:Drivers/STM32F3xx_HAL_Driver/Src/stm32f3xx_hal_pcd.c ****         /* Zero Length Packet? */
 525:Drivers/STM32F3xx_HAL_Driver/Src/stm32f3xx_hal_pcd.c ****         if (ep->xfer_len == 0U)
 526:Drivers/STM32F3xx_HAL_Driver/Src/stm32f3xx_hal_pcd.c ****         {
 527:Drivers/STM32F3xx_HAL_Driver/Src/stm32f3xx_hal_pcd.c ****           /* TX COMPLETE */
 528:Drivers/STM32F3xx_HAL_Driver/Src/stm32f3xx_hal_pcd.c ****           HAL_PCD_DataInStageCallback(hpcd, ep->num);
 529:Drivers/STM32F3xx_HAL_Driver/Src/stm32f3xx_hal_pcd.c ****         }
 530:Drivers/STM32F3xx_HAL_Driver/Src/stm32f3xx_hal_pcd.c ****         else
 531:Drivers/STM32F3xx_HAL_Driver/Src/stm32f3xx_hal_pcd.c ****         {
 532:Drivers/STM32F3xx_HAL_Driver/Src/stm32f3xx_hal_pcd.c ****           HAL_PCD_EP_Transmit(hpcd, ep->num, ep->xfer_buff, ep->xfer_len);
 533:Drivers/STM32F3xx_HAL_Driver/Src/stm32f3xx_hal_pcd.c ****         }
 534:Drivers/STM32F3xx_HAL_Driver/Src/stm32f3xx_hal_pcd.c ****       } 
 535:Drivers/STM32F3xx_HAL_Driver/Src/stm32f3xx_hal_pcd.c ****     }
 536:Drivers/STM32F3xx_HAL_Driver/Src/stm32f3xx_hal_pcd.c ****   }
 537:Drivers/STM32F3xx_HAL_Driver/Src/stm32f3xx_hal_pcd.c ****   return HAL_OK;
 538:Drivers/STM32F3xx_HAL_Driver/Src/stm32f3xx_hal_pcd.c **** }
 539:Drivers/STM32F3xx_HAL_Driver/Src/stm32f3xx_hal_pcd.c **** /**
 540:Drivers/STM32F3xx_HAL_Driver/Src/stm32f3xx_hal_pcd.c ****   * @}
 541:Drivers/STM32F3xx_HAL_Driver/Src/stm32f3xx_hal_pcd.c ****   */
 542:Drivers/STM32F3xx_HAL_Driver/Src/stm32f3xx_hal_pcd.c **** 
 543:Drivers/STM32F3xx_HAL_Driver/Src/stm32f3xx_hal_pcd.c **** /** @addtogroup PCD_Exported_Functions
 544:Drivers/STM32F3xx_HAL_Driver/Src/stm32f3xx_hal_pcd.c ****   * @{
 545:Drivers/STM32F3xx_HAL_Driver/Src/stm32f3xx_hal_pcd.c ****   */
 546:Drivers/STM32F3xx_HAL_Driver/Src/stm32f3xx_hal_pcd.c **** 
 547:Drivers/STM32F3xx_HAL_Driver/Src/stm32f3xx_hal_pcd.c **** /** @defgroup PCD_Exported_Functions_Group2 IO operation functions 
 548:Drivers/STM32F3xx_HAL_Driver/Src/stm32f3xx_hal_pcd.c ****  * @{
 549:Drivers/STM32F3xx_HAL_Driver/Src/stm32f3xx_hal_pcd.c ****  */    
 550:Drivers/STM32F3xx_HAL_Driver/Src/stm32f3xx_hal_pcd.c ****  
 551:Drivers/STM32F3xx_HAL_Driver/Src/stm32f3xx_hal_pcd.c **** /**
 552:Drivers/STM32F3xx_HAL_Driver/Src/stm32f3xx_hal_pcd.c ****   * @brief  This function handles PCD interrupt request.
 553:Drivers/STM32F3xx_HAL_Driver/Src/stm32f3xx_hal_pcd.c ****   * @param  hpcd PCD handle
 554:Drivers/STM32F3xx_HAL_Driver/Src/stm32f3xx_hal_pcd.c ****   * @retval HAL status
 555:Drivers/STM32F3xx_HAL_Driver/Src/stm32f3xx_hal_pcd.c ****   */
 556:Drivers/STM32F3xx_HAL_Driver/Src/stm32f3xx_hal_pcd.c **** void HAL_PCD_IRQHandler(PCD_HandleTypeDef *hpcd)
ARM GAS  /tmp/ccwKMGBI.s 			page 17


 557:Drivers/STM32F3xx_HAL_Driver/Src/stm32f3xx_hal_pcd.c **** {
 558:Drivers/STM32F3xx_HAL_Driver/Src/stm32f3xx_hal_pcd.c ****   
 559:Drivers/STM32F3xx_HAL_Driver/Src/stm32f3xx_hal_pcd.c ****   if (__HAL_PCD_GET_FLAG (hpcd, USB_ISTR_CTR))
 560:Drivers/STM32F3xx_HAL_Driver/Src/stm32f3xx_hal_pcd.c ****   {
 561:Drivers/STM32F3xx_HAL_Driver/Src/stm32f3xx_hal_pcd.c ****     /* servicing of the endpoint correct transfer interrupt */
 562:Drivers/STM32F3xx_HAL_Driver/Src/stm32f3xx_hal_pcd.c ****     /* clear of the CTR flag into the sub */
 563:Drivers/STM32F3xx_HAL_Driver/Src/stm32f3xx_hal_pcd.c ****     PCD_EP_ISR_Handler(hpcd);
 564:Drivers/STM32F3xx_HAL_Driver/Src/stm32f3xx_hal_pcd.c ****   }
 565:Drivers/STM32F3xx_HAL_Driver/Src/stm32f3xx_hal_pcd.c **** 
 566:Drivers/STM32F3xx_HAL_Driver/Src/stm32f3xx_hal_pcd.c ****   if (__HAL_PCD_GET_FLAG (hpcd, USB_ISTR_RESET))
 567:Drivers/STM32F3xx_HAL_Driver/Src/stm32f3xx_hal_pcd.c ****   {
 568:Drivers/STM32F3xx_HAL_Driver/Src/stm32f3xx_hal_pcd.c ****     __HAL_PCD_CLEAR_FLAG(hpcd, USB_ISTR_RESET);
 569:Drivers/STM32F3xx_HAL_Driver/Src/stm32f3xx_hal_pcd.c ****     HAL_PCD_ResetCallback(hpcd);
 570:Drivers/STM32F3xx_HAL_Driver/Src/stm32f3xx_hal_pcd.c ****     HAL_PCD_SetAddress(hpcd, 0U);
 571:Drivers/STM32F3xx_HAL_Driver/Src/stm32f3xx_hal_pcd.c ****   }
 572:Drivers/STM32F3xx_HAL_Driver/Src/stm32f3xx_hal_pcd.c **** 
 573:Drivers/STM32F3xx_HAL_Driver/Src/stm32f3xx_hal_pcd.c ****   if (__HAL_PCD_GET_FLAG (hpcd, USB_ISTR_PMAOVR))
 574:Drivers/STM32F3xx_HAL_Driver/Src/stm32f3xx_hal_pcd.c ****   {
 575:Drivers/STM32F3xx_HAL_Driver/Src/stm32f3xx_hal_pcd.c ****     __HAL_PCD_CLEAR_FLAG(hpcd, USB_ISTR_PMAOVR);    
 576:Drivers/STM32F3xx_HAL_Driver/Src/stm32f3xx_hal_pcd.c ****   }
 577:Drivers/STM32F3xx_HAL_Driver/Src/stm32f3xx_hal_pcd.c ****   if (__HAL_PCD_GET_FLAG (hpcd, USB_ISTR_ERR))
 578:Drivers/STM32F3xx_HAL_Driver/Src/stm32f3xx_hal_pcd.c ****   {
 579:Drivers/STM32F3xx_HAL_Driver/Src/stm32f3xx_hal_pcd.c ****     __HAL_PCD_CLEAR_FLAG(hpcd, USB_ISTR_ERR); 
 580:Drivers/STM32F3xx_HAL_Driver/Src/stm32f3xx_hal_pcd.c ****   }
 581:Drivers/STM32F3xx_HAL_Driver/Src/stm32f3xx_hal_pcd.c **** 
 582:Drivers/STM32F3xx_HAL_Driver/Src/stm32f3xx_hal_pcd.c ****   if (__HAL_PCD_GET_FLAG (hpcd, USB_ISTR_WKUP))
 583:Drivers/STM32F3xx_HAL_Driver/Src/stm32f3xx_hal_pcd.c ****   {
 584:Drivers/STM32F3xx_HAL_Driver/Src/stm32f3xx_hal_pcd.c ****     hpcd->Instance->CNTR &= (uint16_t) ~(USB_CNTR_LPMODE);
 585:Drivers/STM32F3xx_HAL_Driver/Src/stm32f3xx_hal_pcd.c ****     hpcd->Instance->CNTR &= (uint16_t) ~(USB_CNTR_FSUSP);
 586:Drivers/STM32F3xx_HAL_Driver/Src/stm32f3xx_hal_pcd.c **** 
 587:Drivers/STM32F3xx_HAL_Driver/Src/stm32f3xx_hal_pcd.c ****     HAL_PCD_ResumeCallback(hpcd);
 588:Drivers/STM32F3xx_HAL_Driver/Src/stm32f3xx_hal_pcd.c **** 
 589:Drivers/STM32F3xx_HAL_Driver/Src/stm32f3xx_hal_pcd.c ****     __HAL_PCD_CLEAR_FLAG(hpcd, USB_ISTR_WKUP);     
 590:Drivers/STM32F3xx_HAL_Driver/Src/stm32f3xx_hal_pcd.c ****   }
 591:Drivers/STM32F3xx_HAL_Driver/Src/stm32f3xx_hal_pcd.c **** 
 592:Drivers/STM32F3xx_HAL_Driver/Src/stm32f3xx_hal_pcd.c ****   if (__HAL_PCD_GET_FLAG (hpcd, USB_ISTR_SUSP))
 593:Drivers/STM32F3xx_HAL_Driver/Src/stm32f3xx_hal_pcd.c ****   {
 594:Drivers/STM32F3xx_HAL_Driver/Src/stm32f3xx_hal_pcd.c ****     /* Force low-power mode in the macrocell */
 595:Drivers/STM32F3xx_HAL_Driver/Src/stm32f3xx_hal_pcd.c ****     hpcd->Instance->CNTR |= USB_CNTR_FSUSP;
 596:Drivers/STM32F3xx_HAL_Driver/Src/stm32f3xx_hal_pcd.c **** 
 597:Drivers/STM32F3xx_HAL_Driver/Src/stm32f3xx_hal_pcd.c ****     /* clear of the ISTR bit must be done after setting of CNTR_FSUSP */
 598:Drivers/STM32F3xx_HAL_Driver/Src/stm32f3xx_hal_pcd.c ****     __HAL_PCD_CLEAR_FLAG(hpcd, USB_ISTR_SUSP);
 599:Drivers/STM32F3xx_HAL_Driver/Src/stm32f3xx_hal_pcd.c **** 
 600:Drivers/STM32F3xx_HAL_Driver/Src/stm32f3xx_hal_pcd.c ****     hpcd->Instance->CNTR |= USB_CNTR_LPMODE;
 601:Drivers/STM32F3xx_HAL_Driver/Src/stm32f3xx_hal_pcd.c ****     if (__HAL_PCD_GET_FLAG (hpcd, USB_ISTR_WKUP) == 0U)
 602:Drivers/STM32F3xx_HAL_Driver/Src/stm32f3xx_hal_pcd.c ****     {
 603:Drivers/STM32F3xx_HAL_Driver/Src/stm32f3xx_hal_pcd.c ****       HAL_PCD_SuspendCallback(hpcd);
 604:Drivers/STM32F3xx_HAL_Driver/Src/stm32f3xx_hal_pcd.c ****     }
 605:Drivers/STM32F3xx_HAL_Driver/Src/stm32f3xx_hal_pcd.c ****   }
 606:Drivers/STM32F3xx_HAL_Driver/Src/stm32f3xx_hal_pcd.c **** 
 607:Drivers/STM32F3xx_HAL_Driver/Src/stm32f3xx_hal_pcd.c ****   if (__HAL_PCD_GET_FLAG (hpcd, USB_ISTR_SOF))
 608:Drivers/STM32F3xx_HAL_Driver/Src/stm32f3xx_hal_pcd.c ****   {
 609:Drivers/STM32F3xx_HAL_Driver/Src/stm32f3xx_hal_pcd.c ****     __HAL_PCD_CLEAR_FLAG(hpcd, USB_ISTR_SOF); 
 610:Drivers/STM32F3xx_HAL_Driver/Src/stm32f3xx_hal_pcd.c ****     HAL_PCD_SOFCallback(hpcd);
 611:Drivers/STM32F3xx_HAL_Driver/Src/stm32f3xx_hal_pcd.c ****   }
 612:Drivers/STM32F3xx_HAL_Driver/Src/stm32f3xx_hal_pcd.c **** 
 613:Drivers/STM32F3xx_HAL_Driver/Src/stm32f3xx_hal_pcd.c ****   if (__HAL_PCD_GET_FLAG (hpcd, USB_ISTR_ESOF))
ARM GAS  /tmp/ccwKMGBI.s 			page 18


 614:Drivers/STM32F3xx_HAL_Driver/Src/stm32f3xx_hal_pcd.c ****   {
 615:Drivers/STM32F3xx_HAL_Driver/Src/stm32f3xx_hal_pcd.c ****     /* clear ESOF flag in ISTR */
 616:Drivers/STM32F3xx_HAL_Driver/Src/stm32f3xx_hal_pcd.c ****     __HAL_PCD_CLEAR_FLAG(hpcd, USB_ISTR_ESOF); 
 617:Drivers/STM32F3xx_HAL_Driver/Src/stm32f3xx_hal_pcd.c ****   }
 618:Drivers/STM32F3xx_HAL_Driver/Src/stm32f3xx_hal_pcd.c **** }
 619:Drivers/STM32F3xx_HAL_Driver/Src/stm32f3xx_hal_pcd.c **** 
 620:Drivers/STM32F3xx_HAL_Driver/Src/stm32f3xx_hal_pcd.c **** /**
 621:Drivers/STM32F3xx_HAL_Driver/Src/stm32f3xx_hal_pcd.c ****   * @brief  Data out stage callbacks
 622:Drivers/STM32F3xx_HAL_Driver/Src/stm32f3xx_hal_pcd.c ****   * @param  hpcd PCD handle
 623:Drivers/STM32F3xx_HAL_Driver/Src/stm32f3xx_hal_pcd.c ****   * @param  epnum endpoint number
 624:Drivers/STM32F3xx_HAL_Driver/Src/stm32f3xx_hal_pcd.c ****   * @retval None
 625:Drivers/STM32F3xx_HAL_Driver/Src/stm32f3xx_hal_pcd.c ****   */
 626:Drivers/STM32F3xx_HAL_Driver/Src/stm32f3xx_hal_pcd.c ****  __weak void HAL_PCD_DataOutStageCallback(PCD_HandleTypeDef *hpcd, uint8_t epnum)
 627:Drivers/STM32F3xx_HAL_Driver/Src/stm32f3xx_hal_pcd.c **** {
 327              		.loc 1 627 0
 328              		.cfi_startproc
 329              		@ args = 0, pretend = 0, frame = 0
 330              		@ frame_needed = 0, uses_anonymous_args = 0
 331              		@ link register save eliminated.
 332              	.LVL24:
 333 0000 7047     		bx	lr
 334              		.cfi_endproc
 335              	.LFE132:
 337 0002 00BF     		.section	.text.HAL_PCD_DataInStageCallback,"ax",%progbits
 338              		.align	2
 339              		.weak	HAL_PCD_DataInStageCallback
 340              		.thumb
 341              		.thumb_func
 343              	HAL_PCD_DataInStageCallback:
 344              	.LFB133:
 628:Drivers/STM32F3xx_HAL_Driver/Src/stm32f3xx_hal_pcd.c ****   /* Prevent unused argument(s) compilation warning */
 629:Drivers/STM32F3xx_HAL_Driver/Src/stm32f3xx_hal_pcd.c ****   UNUSED(hpcd);
 630:Drivers/STM32F3xx_HAL_Driver/Src/stm32f3xx_hal_pcd.c ****   UNUSED(epnum);
 631:Drivers/STM32F3xx_HAL_Driver/Src/stm32f3xx_hal_pcd.c **** 
 632:Drivers/STM32F3xx_HAL_Driver/Src/stm32f3xx_hal_pcd.c ****   /* NOTE : This function should not be modified, when the callback is needed,
 633:Drivers/STM32F3xx_HAL_Driver/Src/stm32f3xx_hal_pcd.c ****             the HAL_PCD_DataOutStageCallback could be implemented in the user file
 634:Drivers/STM32F3xx_HAL_Driver/Src/stm32f3xx_hal_pcd.c ****    */ 
 635:Drivers/STM32F3xx_HAL_Driver/Src/stm32f3xx_hal_pcd.c **** }
 636:Drivers/STM32F3xx_HAL_Driver/Src/stm32f3xx_hal_pcd.c **** 
 637:Drivers/STM32F3xx_HAL_Driver/Src/stm32f3xx_hal_pcd.c **** /**
 638:Drivers/STM32F3xx_HAL_Driver/Src/stm32f3xx_hal_pcd.c ****   * @brief  Data IN stage callbacks
 639:Drivers/STM32F3xx_HAL_Driver/Src/stm32f3xx_hal_pcd.c ****   * @param  hpcd PCD handle
 640:Drivers/STM32F3xx_HAL_Driver/Src/stm32f3xx_hal_pcd.c ****   * @param  epnum endpoint number
 641:Drivers/STM32F3xx_HAL_Driver/Src/stm32f3xx_hal_pcd.c ****   * @retval None
 642:Drivers/STM32F3xx_HAL_Driver/Src/stm32f3xx_hal_pcd.c ****   */
 643:Drivers/STM32F3xx_HAL_Driver/Src/stm32f3xx_hal_pcd.c ****  __weak void HAL_PCD_DataInStageCallback(PCD_HandleTypeDef *hpcd, uint8_t epnum)
 644:Drivers/STM32F3xx_HAL_Driver/Src/stm32f3xx_hal_pcd.c **** {
 345              		.loc 1 644 0
 346              		.cfi_startproc
 347              		@ args = 0, pretend = 0, frame = 0
 348              		@ frame_needed = 0, uses_anonymous_args = 0
 349              		@ link register save eliminated.
 350              	.LVL25:
 351 0000 7047     		bx	lr
 352              		.cfi_endproc
 353              	.LFE133:
 355 0002 00BF     		.section	.text.HAL_PCD_SetupStageCallback,"ax",%progbits
ARM GAS  /tmp/ccwKMGBI.s 			page 19


 356              		.align	2
 357              		.weak	HAL_PCD_SetupStageCallback
 358              		.thumb
 359              		.thumb_func
 361              	HAL_PCD_SetupStageCallback:
 362              	.LFB134:
 645:Drivers/STM32F3xx_HAL_Driver/Src/stm32f3xx_hal_pcd.c ****   /* Prevent unused argument(s) compilation warning */
 646:Drivers/STM32F3xx_HAL_Driver/Src/stm32f3xx_hal_pcd.c ****   UNUSED(hpcd);
 647:Drivers/STM32F3xx_HAL_Driver/Src/stm32f3xx_hal_pcd.c ****   UNUSED(epnum);
 648:Drivers/STM32F3xx_HAL_Driver/Src/stm32f3xx_hal_pcd.c **** 
 649:Drivers/STM32F3xx_HAL_Driver/Src/stm32f3xx_hal_pcd.c ****   /* NOTE : This function should not be modified, when the callback is needed,
 650:Drivers/STM32F3xx_HAL_Driver/Src/stm32f3xx_hal_pcd.c ****             the HAL_PCD_DataInStageCallback could be implemented in the user file
 651:Drivers/STM32F3xx_HAL_Driver/Src/stm32f3xx_hal_pcd.c ****    */ 
 652:Drivers/STM32F3xx_HAL_Driver/Src/stm32f3xx_hal_pcd.c **** }
 653:Drivers/STM32F3xx_HAL_Driver/Src/stm32f3xx_hal_pcd.c **** /**
 654:Drivers/STM32F3xx_HAL_Driver/Src/stm32f3xx_hal_pcd.c ****   * @brief  Setup stage callback
 655:Drivers/STM32F3xx_HAL_Driver/Src/stm32f3xx_hal_pcd.c ****   * @param  hpcd PCD handle
 656:Drivers/STM32F3xx_HAL_Driver/Src/stm32f3xx_hal_pcd.c ****   * @retval None
 657:Drivers/STM32F3xx_HAL_Driver/Src/stm32f3xx_hal_pcd.c ****   */
 658:Drivers/STM32F3xx_HAL_Driver/Src/stm32f3xx_hal_pcd.c ****  __weak void HAL_PCD_SetupStageCallback(PCD_HandleTypeDef *hpcd)
 659:Drivers/STM32F3xx_HAL_Driver/Src/stm32f3xx_hal_pcd.c **** {
 363              		.loc 1 659 0
 364              		.cfi_startproc
 365              		@ args = 0, pretend = 0, frame = 0
 366              		@ frame_needed = 0, uses_anonymous_args = 0
 367              		@ link register save eliminated.
 368              	.LVL26:
 369 0000 7047     		bx	lr
 370              		.cfi_endproc
 371              	.LFE134:
 373 0002 00BF     		.section	.text.HAL_PCD_SOFCallback,"ax",%progbits
 374              		.align	2
 375              		.weak	HAL_PCD_SOFCallback
 376              		.thumb
 377              		.thumb_func
 379              	HAL_PCD_SOFCallback:
 380              	.LFB135:
 660:Drivers/STM32F3xx_HAL_Driver/Src/stm32f3xx_hal_pcd.c ****   /* Prevent unused argument(s) compilation warning */
 661:Drivers/STM32F3xx_HAL_Driver/Src/stm32f3xx_hal_pcd.c ****   UNUSED(hpcd);
 662:Drivers/STM32F3xx_HAL_Driver/Src/stm32f3xx_hal_pcd.c **** 
 663:Drivers/STM32F3xx_HAL_Driver/Src/stm32f3xx_hal_pcd.c ****   /* NOTE : This function should not be modified, when the callback is needed,
 664:Drivers/STM32F3xx_HAL_Driver/Src/stm32f3xx_hal_pcd.c ****             the HAL_PCD_SetupStageCallback could be implemented in the user file
 665:Drivers/STM32F3xx_HAL_Driver/Src/stm32f3xx_hal_pcd.c ****    */ 
 666:Drivers/STM32F3xx_HAL_Driver/Src/stm32f3xx_hal_pcd.c **** }
 667:Drivers/STM32F3xx_HAL_Driver/Src/stm32f3xx_hal_pcd.c **** 
 668:Drivers/STM32F3xx_HAL_Driver/Src/stm32f3xx_hal_pcd.c **** /**
 669:Drivers/STM32F3xx_HAL_Driver/Src/stm32f3xx_hal_pcd.c ****   * @brief  USB Start Of Frame callbacks
 670:Drivers/STM32F3xx_HAL_Driver/Src/stm32f3xx_hal_pcd.c ****   * @param  hpcd PCD handle
 671:Drivers/STM32F3xx_HAL_Driver/Src/stm32f3xx_hal_pcd.c ****   * @retval None
 672:Drivers/STM32F3xx_HAL_Driver/Src/stm32f3xx_hal_pcd.c ****   */
 673:Drivers/STM32F3xx_HAL_Driver/Src/stm32f3xx_hal_pcd.c ****  __weak void HAL_PCD_SOFCallback(PCD_HandleTypeDef *hpcd)
 674:Drivers/STM32F3xx_HAL_Driver/Src/stm32f3xx_hal_pcd.c **** {
 381              		.loc 1 674 0
 382              		.cfi_startproc
 383              		@ args = 0, pretend = 0, frame = 0
 384              		@ frame_needed = 0, uses_anonymous_args = 0
 385              		@ link register save eliminated.
ARM GAS  /tmp/ccwKMGBI.s 			page 20


 386              	.LVL27:
 387 0000 7047     		bx	lr
 388              		.cfi_endproc
 389              	.LFE135:
 391 0002 00BF     		.section	.text.HAL_PCD_ResetCallback,"ax",%progbits
 392              		.align	2
 393              		.weak	HAL_PCD_ResetCallback
 394              		.thumb
 395              		.thumb_func
 397              	HAL_PCD_ResetCallback:
 398              	.LFB136:
 675:Drivers/STM32F3xx_HAL_Driver/Src/stm32f3xx_hal_pcd.c ****   /* Prevent unused argument(s) compilation warning */
 676:Drivers/STM32F3xx_HAL_Driver/Src/stm32f3xx_hal_pcd.c ****   UNUSED(hpcd);
 677:Drivers/STM32F3xx_HAL_Driver/Src/stm32f3xx_hal_pcd.c **** 
 678:Drivers/STM32F3xx_HAL_Driver/Src/stm32f3xx_hal_pcd.c ****   /* NOTE : This function should not be modified, when the callback is needed,
 679:Drivers/STM32F3xx_HAL_Driver/Src/stm32f3xx_hal_pcd.c ****             the HAL_PCD_SOFCallback could be implemented in the user file
 680:Drivers/STM32F3xx_HAL_Driver/Src/stm32f3xx_hal_pcd.c ****    */ 
 681:Drivers/STM32F3xx_HAL_Driver/Src/stm32f3xx_hal_pcd.c **** }
 682:Drivers/STM32F3xx_HAL_Driver/Src/stm32f3xx_hal_pcd.c **** 
 683:Drivers/STM32F3xx_HAL_Driver/Src/stm32f3xx_hal_pcd.c **** /**
 684:Drivers/STM32F3xx_HAL_Driver/Src/stm32f3xx_hal_pcd.c ****   * @brief  USB Reset callbacks
 685:Drivers/STM32F3xx_HAL_Driver/Src/stm32f3xx_hal_pcd.c ****   * @param  hpcd PCD handle
 686:Drivers/STM32F3xx_HAL_Driver/Src/stm32f3xx_hal_pcd.c ****   * @retval None
 687:Drivers/STM32F3xx_HAL_Driver/Src/stm32f3xx_hal_pcd.c ****   */
 688:Drivers/STM32F3xx_HAL_Driver/Src/stm32f3xx_hal_pcd.c ****  __weak void HAL_PCD_ResetCallback(PCD_HandleTypeDef *hpcd)
 689:Drivers/STM32F3xx_HAL_Driver/Src/stm32f3xx_hal_pcd.c **** {
 399              		.loc 1 689 0
 400              		.cfi_startproc
 401              		@ args = 0, pretend = 0, frame = 0
 402              		@ frame_needed = 0, uses_anonymous_args = 0
 403              		@ link register save eliminated.
 404              	.LVL28:
 405 0000 7047     		bx	lr
 406              		.cfi_endproc
 407              	.LFE136:
 409 0002 00BF     		.section	.text.HAL_PCD_SuspendCallback,"ax",%progbits
 410              		.align	2
 411              		.weak	HAL_PCD_SuspendCallback
 412              		.thumb
 413              		.thumb_func
 415              	HAL_PCD_SuspendCallback:
 416              	.LFB137:
 690:Drivers/STM32F3xx_HAL_Driver/Src/stm32f3xx_hal_pcd.c ****   /* Prevent unused argument(s) compilation warning */
 691:Drivers/STM32F3xx_HAL_Driver/Src/stm32f3xx_hal_pcd.c ****   UNUSED(hpcd);
 692:Drivers/STM32F3xx_HAL_Driver/Src/stm32f3xx_hal_pcd.c **** 
 693:Drivers/STM32F3xx_HAL_Driver/Src/stm32f3xx_hal_pcd.c ****   /* NOTE : This function should not be modified, when the callback is needed,
 694:Drivers/STM32F3xx_HAL_Driver/Src/stm32f3xx_hal_pcd.c ****             the HAL_PCD_ResetCallback could be implemented in the user file
 695:Drivers/STM32F3xx_HAL_Driver/Src/stm32f3xx_hal_pcd.c ****    */ 
 696:Drivers/STM32F3xx_HAL_Driver/Src/stm32f3xx_hal_pcd.c **** }
 697:Drivers/STM32F3xx_HAL_Driver/Src/stm32f3xx_hal_pcd.c **** 
 698:Drivers/STM32F3xx_HAL_Driver/Src/stm32f3xx_hal_pcd.c **** /**
 699:Drivers/STM32F3xx_HAL_Driver/Src/stm32f3xx_hal_pcd.c ****   * @brief  Suspend event callbacks
 700:Drivers/STM32F3xx_HAL_Driver/Src/stm32f3xx_hal_pcd.c ****   * @param  hpcd PCD handle
 701:Drivers/STM32F3xx_HAL_Driver/Src/stm32f3xx_hal_pcd.c ****   * @retval None
 702:Drivers/STM32F3xx_HAL_Driver/Src/stm32f3xx_hal_pcd.c ****   */
 703:Drivers/STM32F3xx_HAL_Driver/Src/stm32f3xx_hal_pcd.c ****  __weak void HAL_PCD_SuspendCallback(PCD_HandleTypeDef *hpcd)
 704:Drivers/STM32F3xx_HAL_Driver/Src/stm32f3xx_hal_pcd.c **** {
ARM GAS  /tmp/ccwKMGBI.s 			page 21


 417              		.loc 1 704 0
 418              		.cfi_startproc
 419              		@ args = 0, pretend = 0, frame = 0
 420              		@ frame_needed = 0, uses_anonymous_args = 0
 421              		@ link register save eliminated.
 422              	.LVL29:
 423 0000 7047     		bx	lr
 424              		.cfi_endproc
 425              	.LFE137:
 427 0002 00BF     		.section	.text.HAL_PCD_ResumeCallback,"ax",%progbits
 428              		.align	2
 429              		.weak	HAL_PCD_ResumeCallback
 430              		.thumb
 431              		.thumb_func
 433              	HAL_PCD_ResumeCallback:
 434              	.LFB138:
 705:Drivers/STM32F3xx_HAL_Driver/Src/stm32f3xx_hal_pcd.c ****   /* Prevent unused argument(s) compilation warning */
 706:Drivers/STM32F3xx_HAL_Driver/Src/stm32f3xx_hal_pcd.c ****   UNUSED(hpcd);
 707:Drivers/STM32F3xx_HAL_Driver/Src/stm32f3xx_hal_pcd.c **** 
 708:Drivers/STM32F3xx_HAL_Driver/Src/stm32f3xx_hal_pcd.c ****   /* NOTE : This function should not be modified, when the callback is needed,
 709:Drivers/STM32F3xx_HAL_Driver/Src/stm32f3xx_hal_pcd.c ****             the HAL_PCD_SuspendCallback could be implemented in the user file
 710:Drivers/STM32F3xx_HAL_Driver/Src/stm32f3xx_hal_pcd.c ****    */ 
 711:Drivers/STM32F3xx_HAL_Driver/Src/stm32f3xx_hal_pcd.c **** }
 712:Drivers/STM32F3xx_HAL_Driver/Src/stm32f3xx_hal_pcd.c **** 
 713:Drivers/STM32F3xx_HAL_Driver/Src/stm32f3xx_hal_pcd.c **** /**
 714:Drivers/STM32F3xx_HAL_Driver/Src/stm32f3xx_hal_pcd.c ****   * @brief  Resume event callbacks
 715:Drivers/STM32F3xx_HAL_Driver/Src/stm32f3xx_hal_pcd.c ****   * @param  hpcd PCD handle
 716:Drivers/STM32F3xx_HAL_Driver/Src/stm32f3xx_hal_pcd.c ****   * @retval None
 717:Drivers/STM32F3xx_HAL_Driver/Src/stm32f3xx_hal_pcd.c ****   */
 718:Drivers/STM32F3xx_HAL_Driver/Src/stm32f3xx_hal_pcd.c ****  __weak void HAL_PCD_ResumeCallback(PCD_HandleTypeDef *hpcd)
 719:Drivers/STM32F3xx_HAL_Driver/Src/stm32f3xx_hal_pcd.c **** {
 435              		.loc 1 719 0
 436              		.cfi_startproc
 437              		@ args = 0, pretend = 0, frame = 0
 438              		@ frame_needed = 0, uses_anonymous_args = 0
 439              		@ link register save eliminated.
 440              	.LVL30:
 441 0000 7047     		bx	lr
 442              		.cfi_endproc
 443              	.LFE138:
 445 0002 00BF     		.section	.text.HAL_PCD_ISOOUTIncompleteCallback,"ax",%progbits
 446              		.align	2
 447              		.weak	HAL_PCD_ISOOUTIncompleteCallback
 448              		.thumb
 449              		.thumb_func
 451              	HAL_PCD_ISOOUTIncompleteCallback:
 452              	.LFB139:
 720:Drivers/STM32F3xx_HAL_Driver/Src/stm32f3xx_hal_pcd.c ****   /* Prevent unused argument(s) compilation warning */
 721:Drivers/STM32F3xx_HAL_Driver/Src/stm32f3xx_hal_pcd.c ****   UNUSED(hpcd);
 722:Drivers/STM32F3xx_HAL_Driver/Src/stm32f3xx_hal_pcd.c **** 
 723:Drivers/STM32F3xx_HAL_Driver/Src/stm32f3xx_hal_pcd.c ****   /* NOTE : This function should not be modified, when the callback is needed,
 724:Drivers/STM32F3xx_HAL_Driver/Src/stm32f3xx_hal_pcd.c ****             the HAL_PCD_ResumeCallback could be implemented in the user file
 725:Drivers/STM32F3xx_HAL_Driver/Src/stm32f3xx_hal_pcd.c ****    */ 
 726:Drivers/STM32F3xx_HAL_Driver/Src/stm32f3xx_hal_pcd.c **** }
 727:Drivers/STM32F3xx_HAL_Driver/Src/stm32f3xx_hal_pcd.c **** 
 728:Drivers/STM32F3xx_HAL_Driver/Src/stm32f3xx_hal_pcd.c **** /**
 729:Drivers/STM32F3xx_HAL_Driver/Src/stm32f3xx_hal_pcd.c ****   * @brief  Incomplete ISO OUT callbacks
ARM GAS  /tmp/ccwKMGBI.s 			page 22


 730:Drivers/STM32F3xx_HAL_Driver/Src/stm32f3xx_hal_pcd.c ****   * @param  hpcd PCD handle
 731:Drivers/STM32F3xx_HAL_Driver/Src/stm32f3xx_hal_pcd.c ****   * @param  epnum endpoint number
 732:Drivers/STM32F3xx_HAL_Driver/Src/stm32f3xx_hal_pcd.c ****   * @retval None
 733:Drivers/STM32F3xx_HAL_Driver/Src/stm32f3xx_hal_pcd.c ****   */
 734:Drivers/STM32F3xx_HAL_Driver/Src/stm32f3xx_hal_pcd.c ****  __weak void HAL_PCD_ISOOUTIncompleteCallback(PCD_HandleTypeDef *hpcd, uint8_t epnum)
 735:Drivers/STM32F3xx_HAL_Driver/Src/stm32f3xx_hal_pcd.c **** {
 453              		.loc 1 735 0
 454              		.cfi_startproc
 455              		@ args = 0, pretend = 0, frame = 0
 456              		@ frame_needed = 0, uses_anonymous_args = 0
 457              		@ link register save eliminated.
 458              	.LVL31:
 459 0000 7047     		bx	lr
 460              		.cfi_endproc
 461              	.LFE139:
 463 0002 00BF     		.section	.text.HAL_PCD_ISOINIncompleteCallback,"ax",%progbits
 464              		.align	2
 465              		.weak	HAL_PCD_ISOINIncompleteCallback
 466              		.thumb
 467              		.thumb_func
 469              	HAL_PCD_ISOINIncompleteCallback:
 470              	.LFB140:
 736:Drivers/STM32F3xx_HAL_Driver/Src/stm32f3xx_hal_pcd.c ****   /* Prevent unused argument(s) compilation warning */
 737:Drivers/STM32F3xx_HAL_Driver/Src/stm32f3xx_hal_pcd.c ****   UNUSED(hpcd);
 738:Drivers/STM32F3xx_HAL_Driver/Src/stm32f3xx_hal_pcd.c ****   UNUSED(epnum);
 739:Drivers/STM32F3xx_HAL_Driver/Src/stm32f3xx_hal_pcd.c **** 
 740:Drivers/STM32F3xx_HAL_Driver/Src/stm32f3xx_hal_pcd.c ****   /* NOTE : This function should not be modified, when the callback is needed,
 741:Drivers/STM32F3xx_HAL_Driver/Src/stm32f3xx_hal_pcd.c ****             the HAL_PCD_ISOOUTIncompleteCallback could be implemented in the user file
 742:Drivers/STM32F3xx_HAL_Driver/Src/stm32f3xx_hal_pcd.c ****    */ 
 743:Drivers/STM32F3xx_HAL_Driver/Src/stm32f3xx_hal_pcd.c **** }
 744:Drivers/STM32F3xx_HAL_Driver/Src/stm32f3xx_hal_pcd.c **** 
 745:Drivers/STM32F3xx_HAL_Driver/Src/stm32f3xx_hal_pcd.c **** /**
 746:Drivers/STM32F3xx_HAL_Driver/Src/stm32f3xx_hal_pcd.c ****   * @brief  Incomplete ISO IN  callbacks
 747:Drivers/STM32F3xx_HAL_Driver/Src/stm32f3xx_hal_pcd.c ****   * @param  hpcd PCD handle
 748:Drivers/STM32F3xx_HAL_Driver/Src/stm32f3xx_hal_pcd.c ****   * @param  epnum endpoint number
 749:Drivers/STM32F3xx_HAL_Driver/Src/stm32f3xx_hal_pcd.c ****   * @retval None
 750:Drivers/STM32F3xx_HAL_Driver/Src/stm32f3xx_hal_pcd.c ****   */
 751:Drivers/STM32F3xx_HAL_Driver/Src/stm32f3xx_hal_pcd.c ****  __weak void HAL_PCD_ISOINIncompleteCallback(PCD_HandleTypeDef *hpcd, uint8_t epnum)
 752:Drivers/STM32F3xx_HAL_Driver/Src/stm32f3xx_hal_pcd.c **** {
 471              		.loc 1 752 0
 472              		.cfi_startproc
 473              		@ args = 0, pretend = 0, frame = 0
 474              		@ frame_needed = 0, uses_anonymous_args = 0
 475              		@ link register save eliminated.
 476              	.LVL32:
 477 0000 7047     		bx	lr
 478              		.cfi_endproc
 479              	.LFE140:
 481 0002 00BF     		.section	.text.HAL_PCD_ConnectCallback,"ax",%progbits
 482              		.align	2
 483              		.weak	HAL_PCD_ConnectCallback
 484              		.thumb
 485              		.thumb_func
 487              	HAL_PCD_ConnectCallback:
 488              	.LFB141:
 753:Drivers/STM32F3xx_HAL_Driver/Src/stm32f3xx_hal_pcd.c ****   /* Prevent unused argument(s) compilation warning */
 754:Drivers/STM32F3xx_HAL_Driver/Src/stm32f3xx_hal_pcd.c ****   UNUSED(hpcd);
ARM GAS  /tmp/ccwKMGBI.s 			page 23


 755:Drivers/STM32F3xx_HAL_Driver/Src/stm32f3xx_hal_pcd.c ****   UNUSED(epnum);
 756:Drivers/STM32F3xx_HAL_Driver/Src/stm32f3xx_hal_pcd.c **** 
 757:Drivers/STM32F3xx_HAL_Driver/Src/stm32f3xx_hal_pcd.c ****   /* NOTE : This function should not be modified, when the callback is needed,
 758:Drivers/STM32F3xx_HAL_Driver/Src/stm32f3xx_hal_pcd.c ****             the HAL_PCD_ISOINIncompleteCallback could be implemented in the user file
 759:Drivers/STM32F3xx_HAL_Driver/Src/stm32f3xx_hal_pcd.c ****    */ 
 760:Drivers/STM32F3xx_HAL_Driver/Src/stm32f3xx_hal_pcd.c **** }
 761:Drivers/STM32F3xx_HAL_Driver/Src/stm32f3xx_hal_pcd.c **** 
 762:Drivers/STM32F3xx_HAL_Driver/Src/stm32f3xx_hal_pcd.c **** /**
 763:Drivers/STM32F3xx_HAL_Driver/Src/stm32f3xx_hal_pcd.c ****   * @brief  Connection event callbacks
 764:Drivers/STM32F3xx_HAL_Driver/Src/stm32f3xx_hal_pcd.c ****   * @param  hpcd PCD handle
 765:Drivers/STM32F3xx_HAL_Driver/Src/stm32f3xx_hal_pcd.c ****   * @retval None
 766:Drivers/STM32F3xx_HAL_Driver/Src/stm32f3xx_hal_pcd.c ****   */
 767:Drivers/STM32F3xx_HAL_Driver/Src/stm32f3xx_hal_pcd.c ****  __weak void HAL_PCD_ConnectCallback(PCD_HandleTypeDef *hpcd)
 768:Drivers/STM32F3xx_HAL_Driver/Src/stm32f3xx_hal_pcd.c **** {
 489              		.loc 1 768 0
 490              		.cfi_startproc
 491              		@ args = 0, pretend = 0, frame = 0
 492              		@ frame_needed = 0, uses_anonymous_args = 0
 493              		@ link register save eliminated.
 494              	.LVL33:
 495 0000 7047     		bx	lr
 496              		.cfi_endproc
 497              	.LFE141:
 499 0002 00BF     		.section	.text.HAL_PCD_DisconnectCallback,"ax",%progbits
 500              		.align	2
 501              		.weak	HAL_PCD_DisconnectCallback
 502              		.thumb
 503              		.thumb_func
 505              	HAL_PCD_DisconnectCallback:
 506              	.LFB142:
 769:Drivers/STM32F3xx_HAL_Driver/Src/stm32f3xx_hal_pcd.c ****   /* Prevent unused argument(s) compilation warning */
 770:Drivers/STM32F3xx_HAL_Driver/Src/stm32f3xx_hal_pcd.c ****   UNUSED(hpcd);
 771:Drivers/STM32F3xx_HAL_Driver/Src/stm32f3xx_hal_pcd.c **** 
 772:Drivers/STM32F3xx_HAL_Driver/Src/stm32f3xx_hal_pcd.c ****   /* NOTE : This function should not be modified, when the callback is needed,
 773:Drivers/STM32F3xx_HAL_Driver/Src/stm32f3xx_hal_pcd.c ****             the HAL_PCD_ConnectCallback could be implemented in the user file
 774:Drivers/STM32F3xx_HAL_Driver/Src/stm32f3xx_hal_pcd.c ****    */ 
 775:Drivers/STM32F3xx_HAL_Driver/Src/stm32f3xx_hal_pcd.c **** }
 776:Drivers/STM32F3xx_HAL_Driver/Src/stm32f3xx_hal_pcd.c **** 
 777:Drivers/STM32F3xx_HAL_Driver/Src/stm32f3xx_hal_pcd.c **** /**
 778:Drivers/STM32F3xx_HAL_Driver/Src/stm32f3xx_hal_pcd.c ****   * @brief  Disconnection event callbacks
 779:Drivers/STM32F3xx_HAL_Driver/Src/stm32f3xx_hal_pcd.c ****   * @param  hpcd PCD handle
 780:Drivers/STM32F3xx_HAL_Driver/Src/stm32f3xx_hal_pcd.c ****   * @retval None
 781:Drivers/STM32F3xx_HAL_Driver/Src/stm32f3xx_hal_pcd.c ****   */
 782:Drivers/STM32F3xx_HAL_Driver/Src/stm32f3xx_hal_pcd.c ****  __weak void HAL_PCD_DisconnectCallback(PCD_HandleTypeDef *hpcd)
 783:Drivers/STM32F3xx_HAL_Driver/Src/stm32f3xx_hal_pcd.c **** {
 507              		.loc 1 783 0
 508              		.cfi_startproc
 509              		@ args = 0, pretend = 0, frame = 0
 510              		@ frame_needed = 0, uses_anonymous_args = 0
 511              		@ link register save eliminated.
 512              	.LVL34:
 513 0000 7047     		bx	lr
 514              		.cfi_endproc
 515              	.LFE142:
 517 0002 00BF     		.section	.text.HAL_PCD_DevConnect,"ax",%progbits
 518              		.align	2
 519              		.global	HAL_PCD_DevConnect
ARM GAS  /tmp/ccwKMGBI.s 			page 24


 520              		.thumb
 521              		.thumb_func
 523              	HAL_PCD_DevConnect:
 524              	.LFB143:
 784:Drivers/STM32F3xx_HAL_Driver/Src/stm32f3xx_hal_pcd.c ****   /* Prevent unused argument(s) compilation warning */
 785:Drivers/STM32F3xx_HAL_Driver/Src/stm32f3xx_hal_pcd.c ****   UNUSED(hpcd);
 786:Drivers/STM32F3xx_HAL_Driver/Src/stm32f3xx_hal_pcd.c **** 
 787:Drivers/STM32F3xx_HAL_Driver/Src/stm32f3xx_hal_pcd.c ****   /* NOTE : This function should not be modified, when the callback is needed,
 788:Drivers/STM32F3xx_HAL_Driver/Src/stm32f3xx_hal_pcd.c ****             the HAL_PCD_DisconnectCallback could be implemented in the user file
 789:Drivers/STM32F3xx_HAL_Driver/Src/stm32f3xx_hal_pcd.c ****    */ 
 790:Drivers/STM32F3xx_HAL_Driver/Src/stm32f3xx_hal_pcd.c **** }
 791:Drivers/STM32F3xx_HAL_Driver/Src/stm32f3xx_hal_pcd.c **** /**
 792:Drivers/STM32F3xx_HAL_Driver/Src/stm32f3xx_hal_pcd.c ****   * @}
 793:Drivers/STM32F3xx_HAL_Driver/Src/stm32f3xx_hal_pcd.c ****   */
 794:Drivers/STM32F3xx_HAL_Driver/Src/stm32f3xx_hal_pcd.c ****   
 795:Drivers/STM32F3xx_HAL_Driver/Src/stm32f3xx_hal_pcd.c **** /** @defgroup PCD_Exported_Functions_Group3 Peripheral Control functions 
 796:Drivers/STM32F3xx_HAL_Driver/Src/stm32f3xx_hal_pcd.c ****  *  @brief   management functions 
 797:Drivers/STM32F3xx_HAL_Driver/Src/stm32f3xx_hal_pcd.c ****  *
 798:Drivers/STM32F3xx_HAL_Driver/Src/stm32f3xx_hal_pcd.c **** @verbatim   
 799:Drivers/STM32F3xx_HAL_Driver/Src/stm32f3xx_hal_pcd.c ****  ===============================================================================
 800:Drivers/STM32F3xx_HAL_Driver/Src/stm32f3xx_hal_pcd.c ****                       ##### Peripheral Control functions #####
 801:Drivers/STM32F3xx_HAL_Driver/Src/stm32f3xx_hal_pcd.c ****  ===============================================================================  
 802:Drivers/STM32F3xx_HAL_Driver/Src/stm32f3xx_hal_pcd.c ****     [..]
 803:Drivers/STM32F3xx_HAL_Driver/Src/stm32f3xx_hal_pcd.c ****     This subsection provides a set of functions allowing to control the PCD data 
 804:Drivers/STM32F3xx_HAL_Driver/Src/stm32f3xx_hal_pcd.c ****     transfers.
 805:Drivers/STM32F3xx_HAL_Driver/Src/stm32f3xx_hal_pcd.c **** 
 806:Drivers/STM32F3xx_HAL_Driver/Src/stm32f3xx_hal_pcd.c **** @endverbatim
 807:Drivers/STM32F3xx_HAL_Driver/Src/stm32f3xx_hal_pcd.c ****   * @{
 808:Drivers/STM32F3xx_HAL_Driver/Src/stm32f3xx_hal_pcd.c ****   */
 809:Drivers/STM32F3xx_HAL_Driver/Src/stm32f3xx_hal_pcd.c **** 
 810:Drivers/STM32F3xx_HAL_Driver/Src/stm32f3xx_hal_pcd.c **** /**
 811:Drivers/STM32F3xx_HAL_Driver/Src/stm32f3xx_hal_pcd.c ****   * @brief  Connect the USB device 
 812:Drivers/STM32F3xx_HAL_Driver/Src/stm32f3xx_hal_pcd.c ****   * @param  hpcd PCD handle
 813:Drivers/STM32F3xx_HAL_Driver/Src/stm32f3xx_hal_pcd.c ****   * @retval HAL status
 814:Drivers/STM32F3xx_HAL_Driver/Src/stm32f3xx_hal_pcd.c ****   */
 815:Drivers/STM32F3xx_HAL_Driver/Src/stm32f3xx_hal_pcd.c **** HAL_StatusTypeDef HAL_PCD_DevConnect(PCD_HandleTypeDef *hpcd)
 816:Drivers/STM32F3xx_HAL_Driver/Src/stm32f3xx_hal_pcd.c **** {
 525              		.loc 1 816 0
 526              		.cfi_startproc
 527              		@ args = 0, pretend = 0, frame = 0
 528              		@ frame_needed = 0, uses_anonymous_args = 0
 529              	.LVL35:
 817:Drivers/STM32F3xx_HAL_Driver/Src/stm32f3xx_hal_pcd.c ****   __HAL_LOCK(hpcd); 
 530              		.loc 1 817 0
 531 0000 90F87033 		ldrb	r3, [r0, #880]	@ zero_extendqisi2
 532 0004 012B     		cmp	r3, #1
 533 0006 0AD0     		beq	.L36
 816:Drivers/STM32F3xx_HAL_Driver/Src/stm32f3xx_hal_pcd.c ****   __HAL_LOCK(hpcd); 
 534              		.loc 1 816 0 discriminator 2
 535 0008 10B5     		push	{r4, lr}
 536              	.LCFI5:
 537              		.cfi_def_cfa_offset 8
 538              		.cfi_offset 4, -8
 539              		.cfi_offset 14, -4
 540 000a 0446     		mov	r4, r0
 541              		.loc 1 817 0 discriminator 2
 542 000c 0121     		movs	r1, #1
ARM GAS  /tmp/ccwKMGBI.s 			page 25


 543 000e 80F87013 		strb	r1, [r0, #880]
 818:Drivers/STM32F3xx_HAL_Driver/Src/stm32f3xx_hal_pcd.c ****   
 819:Drivers/STM32F3xx_HAL_Driver/Src/stm32f3xx_hal_pcd.c ****   /* Enabling DP Pull-Down bit to Connect internal pull-up on USB DP line */
 820:Drivers/STM32F3xx_HAL_Driver/Src/stm32f3xx_hal_pcd.c ****    HAL_PCDEx_SetConnectionState(hpcd, 1U);
 544              		.loc 1 820 0 discriminator 2
 545 0012 FFF7FEFF 		bl	HAL_PCDEx_SetConnectionState
 546              	.LVL36:
 821:Drivers/STM32F3xx_HAL_Driver/Src/stm32f3xx_hal_pcd.c ****   
 822:Drivers/STM32F3xx_HAL_Driver/Src/stm32f3xx_hal_pcd.c ****   __HAL_UNLOCK(hpcd); 
 547              		.loc 1 822 0 discriminator 2
 548 0016 0020     		movs	r0, #0
 549 0018 84F87003 		strb	r0, [r4, #880]
 823:Drivers/STM32F3xx_HAL_Driver/Src/stm32f3xx_hal_pcd.c ****   return HAL_OK;
 550              		.loc 1 823 0 discriminator 2
 551 001c 10BD     		pop	{r4, pc}
 552              	.LVL37:
 553              	.L36:
 554              	.LCFI6:
 555              		.cfi_def_cfa_offset 0
 556              		.cfi_restore 4
 557              		.cfi_restore 14
 817:Drivers/STM32F3xx_HAL_Driver/Src/stm32f3xx_hal_pcd.c ****   
 558              		.loc 1 817 0
 559 001e 0220     		movs	r0, #2
 560              	.LVL38:
 561 0020 7047     		bx	lr
 562              		.cfi_endproc
 563              	.LFE143:
 565 0022 00BF     		.section	.text.HAL_PCD_DevDisconnect,"ax",%progbits
 566              		.align	2
 567              		.global	HAL_PCD_DevDisconnect
 568              		.thumb
 569              		.thumb_func
 571              	HAL_PCD_DevDisconnect:
 572              	.LFB144:
 824:Drivers/STM32F3xx_HAL_Driver/Src/stm32f3xx_hal_pcd.c **** }
 825:Drivers/STM32F3xx_HAL_Driver/Src/stm32f3xx_hal_pcd.c **** 
 826:Drivers/STM32F3xx_HAL_Driver/Src/stm32f3xx_hal_pcd.c **** /**
 827:Drivers/STM32F3xx_HAL_Driver/Src/stm32f3xx_hal_pcd.c ****   * @brief  Disconnect the USB device 
 828:Drivers/STM32F3xx_HAL_Driver/Src/stm32f3xx_hal_pcd.c ****   * @param  hpcd PCD handle
 829:Drivers/STM32F3xx_HAL_Driver/Src/stm32f3xx_hal_pcd.c ****   * @retval HAL status
 830:Drivers/STM32F3xx_HAL_Driver/Src/stm32f3xx_hal_pcd.c ****   */
 831:Drivers/STM32F3xx_HAL_Driver/Src/stm32f3xx_hal_pcd.c **** HAL_StatusTypeDef HAL_PCD_DevDisconnect(PCD_HandleTypeDef *hpcd)
 832:Drivers/STM32F3xx_HAL_Driver/Src/stm32f3xx_hal_pcd.c **** {
 573              		.loc 1 832 0
 574              		.cfi_startproc
 575              		@ args = 0, pretend = 0, frame = 0
 576              		@ frame_needed = 0, uses_anonymous_args = 0
 577              	.LVL39:
 833:Drivers/STM32F3xx_HAL_Driver/Src/stm32f3xx_hal_pcd.c ****   __HAL_LOCK(hpcd); 
 578              		.loc 1 833 0
 579 0000 90F87033 		ldrb	r3, [r0, #880]	@ zero_extendqisi2
 580 0004 012B     		cmp	r3, #1
 581 0006 0BD0     		beq	.L41
 832:Drivers/STM32F3xx_HAL_Driver/Src/stm32f3xx_hal_pcd.c ****   __HAL_LOCK(hpcd); 
 582              		.loc 1 832 0 discriminator 2
 583 0008 10B5     		push	{r4, lr}
ARM GAS  /tmp/ccwKMGBI.s 			page 26


 584              	.LCFI7:
 585              		.cfi_def_cfa_offset 8
 586              		.cfi_offset 4, -8
 587              		.cfi_offset 14, -4
 588 000a 0446     		mov	r4, r0
 589              		.loc 1 833 0 discriminator 2
 590 000c 0123     		movs	r3, #1
 591 000e 80F87033 		strb	r3, [r0, #880]
 834:Drivers/STM32F3xx_HAL_Driver/Src/stm32f3xx_hal_pcd.c ****   
 835:Drivers/STM32F3xx_HAL_Driver/Src/stm32f3xx_hal_pcd.c ****   /* Disable DP Pull-Down bit*/
 836:Drivers/STM32F3xx_HAL_Driver/Src/stm32f3xx_hal_pcd.c ****   HAL_PCDEx_SetConnectionState(hpcd, 0U);
 592              		.loc 1 836 0 discriminator 2
 593 0012 0021     		movs	r1, #0
 594 0014 FFF7FEFF 		bl	HAL_PCDEx_SetConnectionState
 595              	.LVL40:
 837:Drivers/STM32F3xx_HAL_Driver/Src/stm32f3xx_hal_pcd.c ****   
 838:Drivers/STM32F3xx_HAL_Driver/Src/stm32f3xx_hal_pcd.c ****   __HAL_UNLOCK(hpcd); 
 596              		.loc 1 838 0 discriminator 2
 597 0018 0020     		movs	r0, #0
 598 001a 84F87003 		strb	r0, [r4, #880]
 839:Drivers/STM32F3xx_HAL_Driver/Src/stm32f3xx_hal_pcd.c ****   return HAL_OK;
 599              		.loc 1 839 0 discriminator 2
 600 001e 10BD     		pop	{r4, pc}
 601              	.LVL41:
 602              	.L41:
 603              	.LCFI8:
 604              		.cfi_def_cfa_offset 0
 605              		.cfi_restore 4
 606              		.cfi_restore 14
 833:Drivers/STM32F3xx_HAL_Driver/Src/stm32f3xx_hal_pcd.c ****   
 607              		.loc 1 833 0
 608 0020 0220     		movs	r0, #2
 609              	.LVL42:
 610 0022 7047     		bx	lr
 611              		.cfi_endproc
 612              	.LFE144:
 614              		.section	.text.HAL_PCD_SetAddress,"ax",%progbits
 615              		.align	2
 616              		.global	HAL_PCD_SetAddress
 617              		.thumb
 618              		.thumb_func
 620              	HAL_PCD_SetAddress:
 621              	.LFB145:
 840:Drivers/STM32F3xx_HAL_Driver/Src/stm32f3xx_hal_pcd.c **** }
 841:Drivers/STM32F3xx_HAL_Driver/Src/stm32f3xx_hal_pcd.c **** 
 842:Drivers/STM32F3xx_HAL_Driver/Src/stm32f3xx_hal_pcd.c **** /**
 843:Drivers/STM32F3xx_HAL_Driver/Src/stm32f3xx_hal_pcd.c ****   * @brief  Set the USB Device address 
 844:Drivers/STM32F3xx_HAL_Driver/Src/stm32f3xx_hal_pcd.c ****   * @param  hpcd PCD handle
 845:Drivers/STM32F3xx_HAL_Driver/Src/stm32f3xx_hal_pcd.c ****   * @param  address new device address
 846:Drivers/STM32F3xx_HAL_Driver/Src/stm32f3xx_hal_pcd.c ****   * @retval HAL status
 847:Drivers/STM32F3xx_HAL_Driver/Src/stm32f3xx_hal_pcd.c ****   */
 848:Drivers/STM32F3xx_HAL_Driver/Src/stm32f3xx_hal_pcd.c **** HAL_StatusTypeDef HAL_PCD_SetAddress(PCD_HandleTypeDef *hpcd, uint8_t address)
 849:Drivers/STM32F3xx_HAL_Driver/Src/stm32f3xx_hal_pcd.c **** {
 622              		.loc 1 849 0
 623              		.cfi_startproc
 624              		@ args = 0, pretend = 0, frame = 0
 625              		@ frame_needed = 0, uses_anonymous_args = 0
ARM GAS  /tmp/ccwKMGBI.s 			page 27


 626              		@ link register save eliminated.
 627              	.LVL43:
 850:Drivers/STM32F3xx_HAL_Driver/Src/stm32f3xx_hal_pcd.c ****    __HAL_LOCK(hpcd); 
 628              		.loc 1 850 0
 629 0000 90F87033 		ldrb	r3, [r0, #880]	@ zero_extendqisi2
 630 0004 012B     		cmp	r3, #1
 631 0006 0FD0     		beq	.L48
 632              		.loc 1 850 0 is_stmt 0 discriminator 2
 633 0008 0123     		movs	r3, #1
 634 000a 80F87033 		strb	r3, [r0, #880]
 851:Drivers/STM32F3xx_HAL_Driver/Src/stm32f3xx_hal_pcd.c **** 
 852:Drivers/STM32F3xx_HAL_Driver/Src/stm32f3xx_hal_pcd.c ****    if(address == 0U) 
 635              		.loc 1 852 0 is_stmt 1 discriminator 2
 636 000e 21B9     		cbnz	r1, .L46
 853:Drivers/STM32F3xx_HAL_Driver/Src/stm32f3xx_hal_pcd.c ****    {
 854:Drivers/STM32F3xx_HAL_Driver/Src/stm32f3xx_hal_pcd.c ****      /* set device address and enable function */
 855:Drivers/STM32F3xx_HAL_Driver/Src/stm32f3xx_hal_pcd.c ****      hpcd->Instance->DADDR = USB_DADDR_EF;
 637              		.loc 1 855 0
 638 0010 0368     		ldr	r3, [r0]
 639 0012 8022     		movs	r2, #128
 640 0014 A3F84C20 		strh	r2, [r3, #76]	@ movhi
 641 0018 01E0     		b	.L47
 642              	.L46:
 856:Drivers/STM32F3xx_HAL_Driver/Src/stm32f3xx_hal_pcd.c ****    }
 857:Drivers/STM32F3xx_HAL_Driver/Src/stm32f3xx_hal_pcd.c ****    else /* USB Address will be applied later */
 858:Drivers/STM32F3xx_HAL_Driver/Src/stm32f3xx_hal_pcd.c ****    {
 859:Drivers/STM32F3xx_HAL_Driver/Src/stm32f3xx_hal_pcd.c ****      hpcd->USB_Address = address;
 643              		.loc 1 859 0
 644 001a 80F82410 		strb	r1, [r0, #36]
 645              	.L47:
 860:Drivers/STM32F3xx_HAL_Driver/Src/stm32f3xx_hal_pcd.c ****    }
 861:Drivers/STM32F3xx_HAL_Driver/Src/stm32f3xx_hal_pcd.c **** 
 862:Drivers/STM32F3xx_HAL_Driver/Src/stm32f3xx_hal_pcd.c ****   __HAL_UNLOCK(hpcd);   
 646              		.loc 1 862 0
 647 001e 0023     		movs	r3, #0
 648 0020 80F87033 		strb	r3, [r0, #880]
 863:Drivers/STM32F3xx_HAL_Driver/Src/stm32f3xx_hal_pcd.c ****   return HAL_OK;
 649              		.loc 1 863 0
 650 0024 1846     		mov	r0, r3
 651              	.LVL44:
 652 0026 7047     		bx	lr
 653              	.LVL45:
 654              	.L48:
 850:Drivers/STM32F3xx_HAL_Driver/Src/stm32f3xx_hal_pcd.c **** 
 655              		.loc 1 850 0
 656 0028 0220     		movs	r0, #2
 657              	.LVL46:
 864:Drivers/STM32F3xx_HAL_Driver/Src/stm32f3xx_hal_pcd.c **** }
 658              		.loc 1 864 0
 659 002a 7047     		bx	lr
 660              		.cfi_endproc
 661              	.LFE145:
 663              		.section	.text.HAL_PCD_EP_Open,"ax",%progbits
 664              		.align	2
 665              		.global	HAL_PCD_EP_Open
 666              		.thumb
 667              		.thumb_func
ARM GAS  /tmp/ccwKMGBI.s 			page 28


 669              	HAL_PCD_EP_Open:
 670              	.LFB146:
 865:Drivers/STM32F3xx_HAL_Driver/Src/stm32f3xx_hal_pcd.c **** /**
 866:Drivers/STM32F3xx_HAL_Driver/Src/stm32f3xx_hal_pcd.c ****   * @brief  Open and configure an endpoint
 867:Drivers/STM32F3xx_HAL_Driver/Src/stm32f3xx_hal_pcd.c ****   * @param  hpcd PCD handle
 868:Drivers/STM32F3xx_HAL_Driver/Src/stm32f3xx_hal_pcd.c ****   * @param  ep_addr endpoint address
 869:Drivers/STM32F3xx_HAL_Driver/Src/stm32f3xx_hal_pcd.c ****   * @param  ep_mps endpoint max packet size
 870:Drivers/STM32F3xx_HAL_Driver/Src/stm32f3xx_hal_pcd.c ****   * @param  ep_type endpoint type   
 871:Drivers/STM32F3xx_HAL_Driver/Src/stm32f3xx_hal_pcd.c ****   * @retval HAL status
 872:Drivers/STM32F3xx_HAL_Driver/Src/stm32f3xx_hal_pcd.c ****   */
 873:Drivers/STM32F3xx_HAL_Driver/Src/stm32f3xx_hal_pcd.c **** HAL_StatusTypeDef HAL_PCD_EP_Open(PCD_HandleTypeDef *hpcd, uint8_t ep_addr, uint16_t ep_mps, uint8_
 874:Drivers/STM32F3xx_HAL_Driver/Src/stm32f3xx_hal_pcd.c **** {
 671              		.loc 1 874 0
 672              		.cfi_startproc
 673              		@ args = 0, pretend = 0, frame = 0
 674              		@ frame_needed = 0, uses_anonymous_args = 0
 675              		@ link register save eliminated.
 676              	.LVL47:
 677 0000 70B4     		push	{r4, r5, r6}
 678              	.LCFI9:
 679              		.cfi_def_cfa_offset 12
 680              		.cfi_offset 4, -12
 681              		.cfi_offset 5, -8
 682              		.cfi_offset 6, -4
 683              	.LVL48:
 875:Drivers/STM32F3xx_HAL_Driver/Src/stm32f3xx_hal_pcd.c ****   HAL_StatusTypeDef  ret = HAL_OK;
 876:Drivers/STM32F3xx_HAL_Driver/Src/stm32f3xx_hal_pcd.c ****   PCD_EPTypeDef *ep;
 877:Drivers/STM32F3xx_HAL_Driver/Src/stm32f3xx_hal_pcd.c ****   
 878:Drivers/STM32F3xx_HAL_Driver/Src/stm32f3xx_hal_pcd.c ****   if ((ep_addr & 0x80U) == 0x80U)
 684              		.loc 1 878 0
 685 0002 4DB2     		sxtb	r5, r1
 686 0004 002D     		cmp	r5, #0
 687 0006 07DA     		bge	.L50
 879:Drivers/STM32F3xx_HAL_Driver/Src/stm32f3xx_hal_pcd.c ****   {
 880:Drivers/STM32F3xx_HAL_Driver/Src/stm32f3xx_hal_pcd.c ****     ep = &hpcd->IN_ep[ep_addr & 0x7FU];
 688              		.loc 1 880 0
 689 0008 01F07F06 		and	r6, r1, #127
 690 000c C6EBC606 		rsb	r6, r6, r6, lsl #3
 691 0010 B400     		lsls	r4, r6, #2
 692 0012 2834     		adds	r4, r4, #40
 693 0014 0444     		add	r4, r4, r0
 694              	.LVL49:
 695 0016 08E0     		b	.L51
 696              	.LVL50:
 697              	.L50:
 881:Drivers/STM32F3xx_HAL_Driver/Src/stm32f3xx_hal_pcd.c ****   }
 882:Drivers/STM32F3xx_HAL_Driver/Src/stm32f3xx_hal_pcd.c ****   else
 883:Drivers/STM32F3xx_HAL_Driver/Src/stm32f3xx_hal_pcd.c ****   {
 884:Drivers/STM32F3xx_HAL_Driver/Src/stm32f3xx_hal_pcd.c ****     ep = &hpcd->OUT_ep[ep_addr & 0x7FU];
 698              		.loc 1 884 0
 699 0018 01F07F06 		and	r6, r1, #127
 700 001c C6EBC606 		rsb	r6, r6, r6, lsl #3
 701 0020 B400     		lsls	r4, r6, #2
 702 0022 04F5E474 		add	r4, r4, #456
 703 0026 0444     		add	r4, r4, r0
 704 0028 0434     		adds	r4, r4, #4
 705              	.LVL51:
ARM GAS  /tmp/ccwKMGBI.s 			page 29


 706              	.L51:
 885:Drivers/STM32F3xx_HAL_Driver/Src/stm32f3xx_hal_pcd.c ****   }
 886:Drivers/STM32F3xx_HAL_Driver/Src/stm32f3xx_hal_pcd.c ****   ep->num   = ep_addr & 0x7FU;
 707              		.loc 1 886 0
 708 002a 01F07F01 		and	r1, r1, #127
 709              	.LVL52:
 710 002e 2170     		strb	r1, [r4]
 887:Drivers/STM32F3xx_HAL_Driver/Src/stm32f3xx_hal_pcd.c ****   
 888:Drivers/STM32F3xx_HAL_Driver/Src/stm32f3xx_hal_pcd.c ****   ep->is_in = (0x80U & ep_addr) != 0U;
 711              		.loc 1 888 0
 712 0030 ED0F     		lsrs	r5, r5, #31
 713              	.LVL53:
 714 0032 6570     		strb	r5, [r4, #1]
 889:Drivers/STM32F3xx_HAL_Driver/Src/stm32f3xx_hal_pcd.c ****   ep->maxpacket = ep_mps;
 715              		.loc 1 889 0
 716 0034 E260     		str	r2, [r4, #12]
 890:Drivers/STM32F3xx_HAL_Driver/Src/stm32f3xx_hal_pcd.c ****   ep->type = ep_type;
 717              		.loc 1 890 0
 718 0036 E370     		strb	r3, [r4, #3]
 891:Drivers/STM32F3xx_HAL_Driver/Src/stm32f3xx_hal_pcd.c ****   
 892:Drivers/STM32F3xx_HAL_Driver/Src/stm32f3xx_hal_pcd.c ****   __HAL_LOCK(hpcd); 
 719              		.loc 1 892 0
 720 0038 90F87033 		ldrb	r3, [r0, #880]	@ zero_extendqisi2
 721              	.LVL54:
 722 003c 012B     		cmp	r3, #1
 723 003e 00F0A281 		beq	.L73
 724              		.loc 1 892 0 is_stmt 0 discriminator 2
 725 0042 0123     		movs	r3, #1
 726 0044 80F87033 		strb	r3, [r0, #880]
 727              	.LVL55:
 893:Drivers/STM32F3xx_HAL_Driver/Src/stm32f3xx_hal_pcd.c **** 
 894:Drivers/STM32F3xx_HAL_Driver/Src/stm32f3xx_hal_pcd.c ****   /* initialize Endpoint */
 895:Drivers/STM32F3xx_HAL_Driver/Src/stm32f3xx_hal_pcd.c ****   switch (ep->type)
 728              		.loc 1 895 0 is_stmt 1 discriminator 2
 729 0048 E378     		ldrb	r3, [r4, #3]	@ zero_extendqisi2
 730 004a 032B     		cmp	r3, #3
 731 004c 34D8     		bhi	.L53
 732 004e DFE803F0 		tbb	[pc, r3]
 733              	.LVL56:
 734              	.L55:
 735 0052 02       		.byte	(.L54-.L55)/2
 736 0053 27       		.byte	(.L56-.L55)/2
 737 0054 0F       		.byte	(.L57-.L55)/2
 738 0055 1A       		.byte	(.L58-.L55)/2
 739              		.p2align 1
 740              	.L54:
 896:Drivers/STM32F3xx_HAL_Driver/Src/stm32f3xx_hal_pcd.c ****   {
 897:Drivers/STM32F3xx_HAL_Driver/Src/stm32f3xx_hal_pcd.c ****   case PCD_EP_TYPE_CTRL:
 898:Drivers/STM32F3xx_HAL_Driver/Src/stm32f3xx_hal_pcd.c ****     PCD_SET_EPTYPE(hpcd->Instance, ep->num, USB_EP_CONTROL);
 741              		.loc 1 898 0
 742 0056 0268     		ldr	r2, [r0]
 743 0058 2178     		ldrb	r1, [r4]	@ zero_extendqisi2
 744 005a 32F82130 		ldrh	r3, [r2, r1, lsl #2]
 745 005e 23F4EC43 		bic	r3, r3, #30208
 746 0062 23F07003 		bic	r3, r3, #112
 747 0066 43F40073 		orr	r3, r3, #512
 748 006a 22F82130 		strh	r3, [r2, r1, lsl #2]	@ movhi
ARM GAS  /tmp/ccwKMGBI.s 			page 30


 899:Drivers/STM32F3xx_HAL_Driver/Src/stm32f3xx_hal_pcd.c ****     break;
 749              		.loc 1 899 0
 750 006e 23E0     		b	.L53
 751              	.L57:
 900:Drivers/STM32F3xx_HAL_Driver/Src/stm32f3xx_hal_pcd.c ****   case PCD_EP_TYPE_BULK:
 901:Drivers/STM32F3xx_HAL_Driver/Src/stm32f3xx_hal_pcd.c ****     PCD_SET_EPTYPE(hpcd->Instance, ep->num, USB_EP_BULK);
 752              		.loc 1 901 0
 753 0070 0268     		ldr	r2, [r0]
 754 0072 2178     		ldrb	r1, [r4]	@ zero_extendqisi2
 755 0074 32F82130 		ldrh	r3, [r2, r1, lsl #2]
 756 0078 23F4EC43 		bic	r3, r3, #30208
 757 007c 23F07003 		bic	r3, r3, #112
 758 0080 22F82130 		strh	r3, [r2, r1, lsl #2]	@ movhi
 902:Drivers/STM32F3xx_HAL_Driver/Src/stm32f3xx_hal_pcd.c ****     break;
 759              		.loc 1 902 0
 760 0084 18E0     		b	.L53
 761              	.L58:
 903:Drivers/STM32F3xx_HAL_Driver/Src/stm32f3xx_hal_pcd.c ****   case PCD_EP_TYPE_INTR:
 904:Drivers/STM32F3xx_HAL_Driver/Src/stm32f3xx_hal_pcd.c ****     PCD_SET_EPTYPE(hpcd->Instance, ep->num, USB_EP_INTERRUPT);
 762              		.loc 1 904 0
 763 0086 0268     		ldr	r2, [r0]
 764 0088 2178     		ldrb	r1, [r4]	@ zero_extendqisi2
 765 008a 32F82130 		ldrh	r3, [r2, r1, lsl #2]
 766 008e 23F4EC43 		bic	r3, r3, #30208
 767 0092 23F07003 		bic	r3, r3, #112
 768 0096 43F4C063 		orr	r3, r3, #1536
 769 009a 22F82130 		strh	r3, [r2, r1, lsl #2]	@ movhi
 905:Drivers/STM32F3xx_HAL_Driver/Src/stm32f3xx_hal_pcd.c ****     break;
 770              		.loc 1 905 0
 771 009e 0BE0     		b	.L53
 772              	.L56:
 906:Drivers/STM32F3xx_HAL_Driver/Src/stm32f3xx_hal_pcd.c ****   case PCD_EP_TYPE_ISOC:
 907:Drivers/STM32F3xx_HAL_Driver/Src/stm32f3xx_hal_pcd.c ****     PCD_SET_EPTYPE(hpcd->Instance, ep->num, USB_EP_ISOCHRONOUS);
 773              		.loc 1 907 0
 774 00a0 0268     		ldr	r2, [r0]
 775 00a2 2178     		ldrb	r1, [r4]	@ zero_extendqisi2
 776 00a4 32F82130 		ldrh	r3, [r2, r1, lsl #2]
 777 00a8 23F4EC43 		bic	r3, r3, #30208
 778 00ac 23F07003 		bic	r3, r3, #112
 779 00b0 43F48063 		orr	r3, r3, #1024
 780 00b4 22F82130 		strh	r3, [r2, r1, lsl #2]	@ movhi
 781              	.L53:
 908:Drivers/STM32F3xx_HAL_Driver/Src/stm32f3xx_hal_pcd.c ****     break;
 909:Drivers/STM32F3xx_HAL_Driver/Src/stm32f3xx_hal_pcd.c ****   default:
 910:Drivers/STM32F3xx_HAL_Driver/Src/stm32f3xx_hal_pcd.c ****     break;
 911:Drivers/STM32F3xx_HAL_Driver/Src/stm32f3xx_hal_pcd.c ****   } 
 912:Drivers/STM32F3xx_HAL_Driver/Src/stm32f3xx_hal_pcd.c ****   
 913:Drivers/STM32F3xx_HAL_Driver/Src/stm32f3xx_hal_pcd.c ****   PCD_SET_EP_ADDRESS(hpcd->Instance, ep->num, ep->num);
 782              		.loc 1 913 0
 783 00b8 0168     		ldr	r1, [r0]
 784 00ba 2278     		ldrb	r2, [r4]	@ zero_extendqisi2
 785 00bc 31F82230 		ldrh	r3, [r1, r2, lsl #2]
 786 00c0 23F0F003 		bic	r3, r3, #240
 787 00c4 1B05     		lsls	r3, r3, #20
 788 00c6 1B0D     		lsrs	r3, r3, #20
 789 00c8 1343     		orrs	r3, r3, r2
 790 00ca 43F40043 		orr	r3, r3, #32768
ARM GAS  /tmp/ccwKMGBI.s 			page 31


 791 00ce 43F08003 		orr	r3, r3, #128
 792 00d2 21F82230 		strh	r3, [r1, r2, lsl #2]	@ movhi
 914:Drivers/STM32F3xx_HAL_Driver/Src/stm32f3xx_hal_pcd.c ****   
 915:Drivers/STM32F3xx_HAL_Driver/Src/stm32f3xx_hal_pcd.c ****   if (ep->doublebuffer == 0U) 
 793              		.loc 1 915 0
 794 00d6 A37A     		ldrb	r3, [r4, #10]	@ zero_extendqisi2
 795 00d8 002B     		cmp	r3, #0
 796 00da 40F08A80 		bne	.L59
 916:Drivers/STM32F3xx_HAL_Driver/Src/stm32f3xx_hal_pcd.c ****   {
 917:Drivers/STM32F3xx_HAL_Driver/Src/stm32f3xx_hal_pcd.c ****     if (ep->is_in)
 797              		.loc 1 917 0
 798 00de 6378     		ldrb	r3, [r4, #1]	@ zero_extendqisi2
 799 00e0 83B3     		cbz	r3, .L60
 918:Drivers/STM32F3xx_HAL_Driver/Src/stm32f3xx_hal_pcd.c ****     {
 919:Drivers/STM32F3xx_HAL_Driver/Src/stm32f3xx_hal_pcd.c ****       /*Set the endpoint Transmit buffer address */
 920:Drivers/STM32F3xx_HAL_Driver/Src/stm32f3xx_hal_pcd.c ****       PCD_SET_EP_TX_ADDRESS(hpcd->Instance, ep->num, ep->pmaadress);
 800              		.loc 1 920 0
 801 00e2 0368     		ldr	r3, [r0]
 802 00e4 B3F85010 		ldrh	r1, [r3, #80]
 803 00e8 2278     		ldrb	r2, [r4]	@ zero_extendqisi2
 804 00ea D200     		lsls	r2, r2, #3
 805 00ec 12FA81F2 		uxtah	r2, r2, r1
 806 00f0 03EB4203 		add	r3, r3, r2, lsl #1
 807 00f4 A288     		ldrh	r2, [r4, #4]
 808 00f6 22F00102 		bic	r2, r2, #1
 809 00fa A3F80024 		strh	r2, [r3, #1024]	@ movhi
 921:Drivers/STM32F3xx_HAL_Driver/Src/stm32f3xx_hal_pcd.c ****       PCD_CLEAR_TX_DTOG(hpcd->Instance, ep->num)
 810              		.loc 1 921 0
 811 00fe 0168     		ldr	r1, [r0]
 812 0100 2578     		ldrb	r5, [r4]	@ zero_extendqisi2
 813 0102 31F82530 		ldrh	r3, [r1, r5, lsl #2]
 814 0106 03F04002 		and	r2, r3, #64
 815 010a 92B2     		uxth	r2, r2
 816 010c 4AB1     		cbz	r2, .L61
 817              		.loc 1 921 0 is_stmt 0 discriminator 1
 818 010e 23F0F003 		bic	r3, r3, #240
 819 0112 1B05     		lsls	r3, r3, #20
 820 0114 1B0D     		lsrs	r3, r3, #20
 821 0116 43F40043 		orr	r3, r3, #32768
 822 011a 43F0C003 		orr	r3, r3, #192
 823 011e 21F82530 		strh	r3, [r1, r5, lsl #2]	@ movhi
 824              	.L61:
 825              	.LBB2:
 922:Drivers/STM32F3xx_HAL_Driver/Src/stm32f3xx_hal_pcd.c ****       /* Configure NAK status for the Endpoint*/
 923:Drivers/STM32F3xx_HAL_Driver/Src/stm32f3xx_hal_pcd.c ****       PCD_SET_EP_TX_STATUS(hpcd->Instance, ep->num, USB_EP_TX_NAK) 
 826              		.loc 1 923 0 is_stmt 1
 827 0122 0268     		ldr	r2, [r0]
 828 0124 2178     		ldrb	r1, [r4]	@ zero_extendqisi2
 829 0126 32F82130 		ldrh	r3, [r2, r1, lsl #2]
 830 012a 23F4E043 		bic	r3, r3, #28672
 831 012e 23F04003 		bic	r3, r3, #64
 832              	.LVL57:
 833 0132 83F02003 		eor	r3, r3, #32
 834              	.LVL58:
 835 0136 43F40043 		orr	r3, r3, #32768
 836              	.LVL59:
 837 013a 43F08003 		orr	r3, r3, #128
ARM GAS  /tmp/ccwKMGBI.s 			page 32


 838 013e 22F82130 		strh	r3, [r2, r1, lsl #2]	@ movhi
 839              	.LVL60:
 840              	.LBE2:
 841 0142 1BE1     		b	.L62
 842              	.L60:
 924:Drivers/STM32F3xx_HAL_Driver/Src/stm32f3xx_hal_pcd.c ****     }
 925:Drivers/STM32F3xx_HAL_Driver/Src/stm32f3xx_hal_pcd.c ****     else
 926:Drivers/STM32F3xx_HAL_Driver/Src/stm32f3xx_hal_pcd.c ****     {
 927:Drivers/STM32F3xx_HAL_Driver/Src/stm32f3xx_hal_pcd.c ****       /*Set the endpoint Receive buffer address */
 928:Drivers/STM32F3xx_HAL_Driver/Src/stm32f3xx_hal_pcd.c ****       PCD_SET_EP_RX_ADDRESS(hpcd->Instance, ep->num, ep->pmaadress);
 843              		.loc 1 928 0
 844 0144 0168     		ldr	r1, [r0]
 845 0146 B1F85020 		ldrh	r2, [r1, #80]
 846 014a 2378     		ldrb	r3, [r4]	@ zero_extendqisi2
 847 014c DB00     		lsls	r3, r3, #3
 848 014e 13FA82F3 		uxtah	r3, r3, r2
 849 0152 0433     		adds	r3, r3, #4
 850 0154 01EB4303 		add	r3, r1, r3, lsl #1
 851 0158 A288     		ldrh	r2, [r4, #4]
 852 015a 22F00102 		bic	r2, r2, #1
 853 015e A3F80024 		strh	r2, [r3, #1024]	@ movhi
 854              	.LBB3:
 929:Drivers/STM32F3xx_HAL_Driver/Src/stm32f3xx_hal_pcd.c ****       /*Set the endpoint Receive buffer counter*/
 930:Drivers/STM32F3xx_HAL_Driver/Src/stm32f3xx_hal_pcd.c ****       PCD_SET_EP_RX_CNT(hpcd->Instance, ep->num, ep->maxpacket)
 855              		.loc 1 930 0
 856 0162 0168     		ldr	r1, [r0]
 857 0164 B1F85020 		ldrh	r2, [r1, #80]
 858 0168 2378     		ldrb	r3, [r4]	@ zero_extendqisi2
 859 016a DB00     		lsls	r3, r3, #3
 860 016c 13FA82F3 		uxtah	r3, r3, r2
 861 0170 0633     		adds	r3, r3, #6
 862 0172 01EB4303 		add	r3, r1, r3, lsl #1
 863              	.LVL61:
 864              	.LBB4:
 865 0176 E268     		ldr	r2, [r4, #12]
 866 0178 3E2A     		cmp	r2, #62
 867 017a 0DD9     		bls	.L63
 868              		.loc 1 930 0 is_stmt 0 discriminator 1
 869 017c C2F34F11 		ubfx	r1, r2, #5, #16
 870              	.LVL62:
 871 0180 12F01F0F 		tst	r2, #31
 872 0184 01D1     		bne	.L64
 873              		.loc 1 930 0 discriminator 3
 874 0186 0139     		subs	r1, r1, #1
 875              	.LVL63:
 876 0188 89B2     		uxth	r1, r1
 877              	.LVL64:
 878              	.L64:
 879              		.loc 1 930 0 discriminator 5
 880 018a 6FEAC161 		mvn	r1, r1, lsl #27
 881              	.LVL65:
 882 018e 6FEA5141 		mvn	r1, r1, lsr #17
 883 0192 A3F80014 		strh	r1, [r3, #1024]	@ movhi
 884 0196 09E0     		b	.L65
 885              	.L63:
 886              		.loc 1 930 0 discriminator 2
 887 0198 C2F34F01 		ubfx	r1, r2, #1, #16
ARM GAS  /tmp/ccwKMGBI.s 			page 33


 888              	.LVL66:
 889 019c 12F0010F 		tst	r2, #1
 890 01a0 01D0     		beq	.L66
 891              		.loc 1 930 0 discriminator 6
 892 01a2 0131     		adds	r1, r1, #1
 893              	.LVL67:
 894 01a4 89B2     		uxth	r1, r1
 895              	.LVL68:
 896              	.L66:
 897              		.loc 1 930 0 discriminator 8
 898 01a6 8902     		lsls	r1, r1, #10
 899              	.LVL69:
 900 01a8 A3F80014 		strh	r1, [r3, #1024]	@ movhi
 901              	.L65:
 902              	.LBE4:
 903              	.LBE3:
 931:Drivers/STM32F3xx_HAL_Driver/Src/stm32f3xx_hal_pcd.c ****       PCD_CLEAR_RX_DTOG(hpcd->Instance, ep->num)
 904              		.loc 1 931 0 is_stmt 1
 905 01ac 0168     		ldr	r1, [r0]
 906 01ae 2578     		ldrb	r5, [r4]	@ zero_extendqisi2
 907 01b0 31F82530 		ldrh	r3, [r1, r5, lsl #2]
 908              	.LVL70:
 909 01b4 03F48042 		and	r2, r3, #16384
 910 01b8 92B2     		uxth	r2, r2
 911 01ba 4AB1     		cbz	r2, .L67
 912              		.loc 1 931 0 is_stmt 0 discriminator 1
 913 01bc 23F0F003 		bic	r3, r3, #240
 914 01c0 1B05     		lsls	r3, r3, #20
 915 01c2 1B0D     		lsrs	r3, r3, #20
 916 01c4 43F44043 		orr	r3, r3, #49152
 917 01c8 43F08003 		orr	r3, r3, #128
 918 01cc 21F82530 		strh	r3, [r1, r5, lsl #2]	@ movhi
 919              	.L67:
 920              	.LBB5:
 932:Drivers/STM32F3xx_HAL_Driver/Src/stm32f3xx_hal_pcd.c ****       /* Configure VALID status for the Endpoint*/
 933:Drivers/STM32F3xx_HAL_Driver/Src/stm32f3xx_hal_pcd.c ****       PCD_SET_EP_RX_STATUS(hpcd->Instance, ep->num, USB_EP_RX_VALID)
 921              		.loc 1 933 0 is_stmt 1
 922 01d0 0268     		ldr	r2, [r0]
 923 01d2 2178     		ldrb	r1, [r4]	@ zero_extendqisi2
 924 01d4 32F82130 		ldrh	r3, [r2, r1, lsl #2]
 925 01d8 23F48043 		bic	r3, r3, #16384
 926 01dc 23F07003 		bic	r3, r3, #112
 927              	.LVL71:
 928 01e0 83F44053 		eor	r3, r3, #12288
 929              	.LVL72:
 930 01e4 43F40043 		orr	r3, r3, #32768
 931              	.LVL73:
 932 01e8 43F08003 		orr	r3, r3, #128
 933 01ec 22F82130 		strh	r3, [r2, r1, lsl #2]	@ movhi
 934              	.LVL74:
 935 01f0 C4E0     		b	.L62
 936              	.L59:
 937              	.LBE5:
 934:Drivers/STM32F3xx_HAL_Driver/Src/stm32f3xx_hal_pcd.c ****     }
 935:Drivers/STM32F3xx_HAL_Driver/Src/stm32f3xx_hal_pcd.c ****   }
 936:Drivers/STM32F3xx_HAL_Driver/Src/stm32f3xx_hal_pcd.c ****   /*Double Buffer*/
 937:Drivers/STM32F3xx_HAL_Driver/Src/stm32f3xx_hal_pcd.c ****   else
ARM GAS  /tmp/ccwKMGBI.s 			page 34


 938:Drivers/STM32F3xx_HAL_Driver/Src/stm32f3xx_hal_pcd.c ****   {
 939:Drivers/STM32F3xx_HAL_Driver/Src/stm32f3xx_hal_pcd.c ****     /*Set the endpoint as double buffered*/
 940:Drivers/STM32F3xx_HAL_Driver/Src/stm32f3xx_hal_pcd.c ****     PCD_SET_EP_DBUF(hpcd->Instance, ep->num);
 938              		.loc 1 940 0
 939 01f2 0268     		ldr	r2, [r0]
 940 01f4 2178     		ldrb	r1, [r4]	@ zero_extendqisi2
 941 01f6 32F82130 		ldrh	r3, [r2, r1, lsl #2]
 942 01fa 23F4F873 		bic	r3, r3, #496
 943 01fe 1B05     		lsls	r3, r3, #20
 944 0200 1B0D     		lsrs	r3, r3, #20
 945 0202 43F40143 		orr	r3, r3, #33024
 946 0206 43F08003 		orr	r3, r3, #128
 947 020a 22F82130 		strh	r3, [r2, r1, lsl #2]	@ movhi
 941:Drivers/STM32F3xx_HAL_Driver/Src/stm32f3xx_hal_pcd.c ****     /*Set buffer address for double buffered mode*/
 942:Drivers/STM32F3xx_HAL_Driver/Src/stm32f3xx_hal_pcd.c ****     PCD_SET_EP_DBUF_ADDR(hpcd->Instance, ep->num,ep->pmaaddr0, ep->pmaaddr1)
 948              		.loc 1 942 0
 949 020e 0368     		ldr	r3, [r0]
 950 0210 B3F85010 		ldrh	r1, [r3, #80]
 951 0214 2278     		ldrb	r2, [r4]	@ zero_extendqisi2
 952 0216 D200     		lsls	r2, r2, #3
 953 0218 12FA81F2 		uxtah	r2, r2, r1
 954 021c 03EB4203 		add	r3, r3, r2, lsl #1
 955 0220 E288     		ldrh	r2, [r4, #6]
 956 0222 22F00102 		bic	r2, r2, #1
 957 0226 A3F80024 		strh	r2, [r3, #1024]	@ movhi
 958 022a 0168     		ldr	r1, [r0]
 959 022c B1F85020 		ldrh	r2, [r1, #80]
 960 0230 2378     		ldrb	r3, [r4]	@ zero_extendqisi2
 961 0232 DB00     		lsls	r3, r3, #3
 962 0234 13FA82F3 		uxtah	r3, r3, r2
 963 0238 0433     		adds	r3, r3, #4
 964 023a 01EB4303 		add	r3, r1, r3, lsl #1
 965 023e 2289     		ldrh	r2, [r4, #8]
 966 0240 22F00102 		bic	r2, r2, #1
 967 0244 A3F80024 		strh	r2, [r3, #1024]	@ movhi
 943:Drivers/STM32F3xx_HAL_Driver/Src/stm32f3xx_hal_pcd.c ****     
 944:Drivers/STM32F3xx_HAL_Driver/Src/stm32f3xx_hal_pcd.c ****     if (ep->is_in==0U)
 968              		.loc 1 944 0
 969 0248 6378     		ldrb	r3, [r4, #1]	@ zero_extendqisi2
 970 024a 002B     		cmp	r3, #0
 971 024c 4CD1     		bne	.L68
 945:Drivers/STM32F3xx_HAL_Driver/Src/stm32f3xx_hal_pcd.c ****     {
 946:Drivers/STM32F3xx_HAL_Driver/Src/stm32f3xx_hal_pcd.c ****       /* Clear the data toggle bits for the endpoint IN/OUT*/
 947:Drivers/STM32F3xx_HAL_Driver/Src/stm32f3xx_hal_pcd.c ****       PCD_CLEAR_RX_DTOG(hpcd->Instance, ep->num)
 972              		.loc 1 947 0
 973 024e 0168     		ldr	r1, [r0]
 974 0250 2578     		ldrb	r5, [r4]	@ zero_extendqisi2
 975 0252 31F82530 		ldrh	r3, [r1, r5, lsl #2]
 976 0256 03F48042 		and	r2, r3, #16384
 977 025a 92B2     		uxth	r2, r2
 978 025c 4AB1     		cbz	r2, .L69
 979              		.loc 1 947 0 is_stmt 0 discriminator 1
 980 025e 23F0F003 		bic	r3, r3, #240
 981 0262 1B05     		lsls	r3, r3, #20
 982 0264 1B0D     		lsrs	r3, r3, #20
 983 0266 43F44043 		orr	r3, r3, #49152
 984 026a 43F08003 		orr	r3, r3, #128
ARM GAS  /tmp/ccwKMGBI.s 			page 35


 985 026e 21F82530 		strh	r3, [r1, r5, lsl #2]	@ movhi
 986              	.L69:
 948:Drivers/STM32F3xx_HAL_Driver/Src/stm32f3xx_hal_pcd.c ****       PCD_CLEAR_TX_DTOG(hpcd->Instance, ep->num)
 987              		.loc 1 948 0 is_stmt 1
 988 0272 0168     		ldr	r1, [r0]
 989 0274 2578     		ldrb	r5, [r4]	@ zero_extendqisi2
 990 0276 31F82530 		ldrh	r3, [r1, r5, lsl #2]
 991 027a 03F04002 		and	r2, r3, #64
 992 027e 92B2     		uxth	r2, r2
 993 0280 4AB1     		cbz	r2, .L70
 994              		.loc 1 948 0 is_stmt 0 discriminator 1
 995 0282 23F0F003 		bic	r3, r3, #240
 996 0286 1B05     		lsls	r3, r3, #20
 997 0288 1B0D     		lsrs	r3, r3, #20
 998 028a 43F40043 		orr	r3, r3, #32768
 999 028e 43F0C003 		orr	r3, r3, #192
 1000 0292 21F82530 		strh	r3, [r1, r5, lsl #2]	@ movhi
 1001              	.L70:
 949:Drivers/STM32F3xx_HAL_Driver/Src/stm32f3xx_hal_pcd.c ****       
 950:Drivers/STM32F3xx_HAL_Driver/Src/stm32f3xx_hal_pcd.c ****       /* Reset value of the data toggle bits for the endpoint out*/
 951:Drivers/STM32F3xx_HAL_Driver/Src/stm32f3xx_hal_pcd.c ****       PCD_TX_DTOG(hpcd->Instance, ep->num);
 1002              		.loc 1 951 0 is_stmt 1
 1003 0296 0268     		ldr	r2, [r0]
 1004 0298 2178     		ldrb	r1, [r4]	@ zero_extendqisi2
 1005 029a 32F82130 		ldrh	r3, [r2, r1, lsl #2]
 1006 029e 23F0F003 		bic	r3, r3, #240
 1007 02a2 1B05     		lsls	r3, r3, #20
 1008 02a4 1B0D     		lsrs	r3, r3, #20
 1009 02a6 43F40043 		orr	r3, r3, #32768
 1010 02aa 43F0C003 		orr	r3, r3, #192
 1011 02ae 22F82130 		strh	r3, [r2, r1, lsl #2]	@ movhi
 1012              	.LBB6:
 952:Drivers/STM32F3xx_HAL_Driver/Src/stm32f3xx_hal_pcd.c ****       
 953:Drivers/STM32F3xx_HAL_Driver/Src/stm32f3xx_hal_pcd.c ****       PCD_SET_EP_RX_STATUS(hpcd->Instance, ep->num, USB_EP_RX_VALID)
 1013              		.loc 1 953 0
 1014 02b2 0168     		ldr	r1, [r0]
 1015 02b4 2578     		ldrb	r5, [r4]	@ zero_extendqisi2
 1016 02b6 31F82530 		ldrh	r3, [r1, r5, lsl #2]
 1017 02ba 23F48043 		bic	r3, r3, #16384
 1018 02be 23F07003 		bic	r3, r3, #112
 1019              	.LVL75:
 1020 02c2 83F44053 		eor	r3, r3, #12288
 1021              	.LVL76:
 1022 02c6 48F28002 		movw	r2, #32896
 1023 02ca 1343     		orrs	r3, r3, r2
 1024              	.LVL77:
 1025 02cc 21F82530 		strh	r3, [r1, r5, lsl #2]	@ movhi
 1026              	.LVL78:
 1027              	.LBE6:
 1028              	.LBB7:
 954:Drivers/STM32F3xx_HAL_Driver/Src/stm32f3xx_hal_pcd.c ****       PCD_SET_EP_TX_STATUS(hpcd->Instance, ep->num, USB_EP_TX_DIS)
 1029              		.loc 1 954 0
 1030 02d0 0168     		ldr	r1, [r0]
 1031 02d2 2478     		ldrb	r4, [r4]	@ zero_extendqisi2
 1032              	.LVL79:
 1033 02d4 31F82430 		ldrh	r3, [r1, r4, lsl #2]
 1034 02d8 23F4E043 		bic	r3, r3, #28672
ARM GAS  /tmp/ccwKMGBI.s 			page 36


 1035 02dc 23F04003 		bic	r3, r3, #64
 1036              	.LVL80:
 1037 02e0 1343     		orrs	r3, r3, r2
 1038              	.LVL81:
 1039 02e2 21F82430 		strh	r3, [r1, r4, lsl #2]	@ movhi
 1040              	.LVL82:
 1041              	.LBE7:
 1042 02e6 49E0     		b	.L62
 1043              	.LVL83:
 1044              	.L68:
 955:Drivers/STM32F3xx_HAL_Driver/Src/stm32f3xx_hal_pcd.c ****     }
 956:Drivers/STM32F3xx_HAL_Driver/Src/stm32f3xx_hal_pcd.c ****     else
 957:Drivers/STM32F3xx_HAL_Driver/Src/stm32f3xx_hal_pcd.c ****     {
 958:Drivers/STM32F3xx_HAL_Driver/Src/stm32f3xx_hal_pcd.c ****       /* Clear the data toggle bits for the endpoint IN/OUT*/
 959:Drivers/STM32F3xx_HAL_Driver/Src/stm32f3xx_hal_pcd.c ****       PCD_CLEAR_RX_DTOG(hpcd->Instance, ep->num)
 1045              		.loc 1 959 0
 1046 02e8 0168     		ldr	r1, [r0]
 1047 02ea 2578     		ldrb	r5, [r4]	@ zero_extendqisi2
 1048 02ec 31F82530 		ldrh	r3, [r1, r5, lsl #2]
 1049 02f0 03F48042 		and	r2, r3, #16384
 1050 02f4 92B2     		uxth	r2, r2
 1051 02f6 4AB1     		cbz	r2, .L71
 1052              		.loc 1 959 0 is_stmt 0 discriminator 1
 1053 02f8 23F0F003 		bic	r3, r3, #240
 1054 02fc 1B05     		lsls	r3, r3, #20
 1055 02fe 1B0D     		lsrs	r3, r3, #20
 1056 0300 43F44043 		orr	r3, r3, #49152
 1057 0304 43F08003 		orr	r3, r3, #128
 1058 0308 21F82530 		strh	r3, [r1, r5, lsl #2]	@ movhi
 1059              	.L71:
 960:Drivers/STM32F3xx_HAL_Driver/Src/stm32f3xx_hal_pcd.c ****       PCD_CLEAR_TX_DTOG(hpcd->Instance, ep->num)
 1060              		.loc 1 960 0 is_stmt 1
 1061 030c 0168     		ldr	r1, [r0]
 1062 030e 2578     		ldrb	r5, [r4]	@ zero_extendqisi2
 1063 0310 31F82530 		ldrh	r3, [r1, r5, lsl #2]
 1064 0314 03F04002 		and	r2, r3, #64
 1065 0318 92B2     		uxth	r2, r2
 1066 031a 4AB1     		cbz	r2, .L72
 1067              		.loc 1 960 0 is_stmt 0 discriminator 1
 1068 031c 23F0F003 		bic	r3, r3, #240
 1069 0320 1B05     		lsls	r3, r3, #20
 1070 0322 1B0D     		lsrs	r3, r3, #20
 1071 0324 43F40043 		orr	r3, r3, #32768
 1072 0328 43F0C003 		orr	r3, r3, #192
 1073 032c 21F82530 		strh	r3, [r1, r5, lsl #2]	@ movhi
 1074              	.L72:
 961:Drivers/STM32F3xx_HAL_Driver/Src/stm32f3xx_hal_pcd.c ****       PCD_RX_DTOG(hpcd->Instance, ep->num);
 1075              		.loc 1 961 0 is_stmt 1
 1076 0330 0268     		ldr	r2, [r0]
 1077 0332 2178     		ldrb	r1, [r4]	@ zero_extendqisi2
 1078 0334 32F82130 		ldrh	r3, [r2, r1, lsl #2]
 1079 0338 23F0F003 		bic	r3, r3, #240
 1080 033c 1B05     		lsls	r3, r3, #20
 1081 033e 1B0D     		lsrs	r3, r3, #20
 1082 0340 43F44043 		orr	r3, r3, #49152
 1083 0344 43F08003 		orr	r3, r3, #128
 1084 0348 22F82130 		strh	r3, [r2, r1, lsl #2]	@ movhi
ARM GAS  /tmp/ccwKMGBI.s 			page 37


 1085              	.LBB8:
 962:Drivers/STM32F3xx_HAL_Driver/Src/stm32f3xx_hal_pcd.c ****       /* Configure DISABLE status for the Endpoint*/
 963:Drivers/STM32F3xx_HAL_Driver/Src/stm32f3xx_hal_pcd.c ****       PCD_SET_EP_TX_STATUS(hpcd->Instance, ep->num, USB_EP_TX_DIS)
 1086              		.loc 1 963 0
 1087 034c 0168     		ldr	r1, [r0]
 1088 034e 2578     		ldrb	r5, [r4]	@ zero_extendqisi2
 1089 0350 31F82530 		ldrh	r3, [r1, r5, lsl #2]
 1090 0354 23F4E043 		bic	r3, r3, #28672
 1091 0358 23F04003 		bic	r3, r3, #64
 1092              	.LVL84:
 1093 035c 48F28002 		movw	r2, #32896
 1094 0360 1343     		orrs	r3, r3, r2
 1095              	.LVL85:
 1096 0362 21F82530 		strh	r3, [r1, r5, lsl #2]	@ movhi
 1097              	.LVL86:
 1098              	.LBE8:
 1099              	.LBB9:
 964:Drivers/STM32F3xx_HAL_Driver/Src/stm32f3xx_hal_pcd.c ****       PCD_SET_EP_RX_STATUS(hpcd->Instance, ep->num, USB_EP_RX_DIS)
 1100              		.loc 1 964 0
 1101 0366 0168     		ldr	r1, [r0]
 1102 0368 2478     		ldrb	r4, [r4]	@ zero_extendqisi2
 1103              	.LVL87:
 1104 036a 31F82430 		ldrh	r3, [r1, r4, lsl #2]
 1105 036e 23F48043 		bic	r3, r3, #16384
 1106 0372 23F07003 		bic	r3, r3, #112
 1107              	.LVL88:
 1108 0376 1343     		orrs	r3, r3, r2
 1109              	.LVL89:
 1110 0378 21F82430 		strh	r3, [r1, r4, lsl #2]	@ movhi
 1111              	.LVL90:
 1112              	.L62:
 1113              	.LBE9:
 965:Drivers/STM32F3xx_HAL_Driver/Src/stm32f3xx_hal_pcd.c ****     }
 966:Drivers/STM32F3xx_HAL_Driver/Src/stm32f3xx_hal_pcd.c ****   } 
 967:Drivers/STM32F3xx_HAL_Driver/Src/stm32f3xx_hal_pcd.c ****   
 968:Drivers/STM32F3xx_HAL_Driver/Src/stm32f3xx_hal_pcd.c ****   __HAL_UNLOCK(hpcd);   
 1114              		.loc 1 968 0
 1115 037c 0023     		movs	r3, #0
 1116 037e 80F87033 		strb	r3, [r0, #880]
 969:Drivers/STM32F3xx_HAL_Driver/Src/stm32f3xx_hal_pcd.c ****   return ret;
 1117              		.loc 1 969 0
 1118 0382 1846     		mov	r0, r3
 1119              	.LVL91:
 1120 0384 00E0     		b	.L52
 1121              	.LVL92:
 1122              	.L73:
 892:Drivers/STM32F3xx_HAL_Driver/Src/stm32f3xx_hal_pcd.c **** 
 1123              		.loc 1 892 0
 1124 0386 0220     		movs	r0, #2
 1125              	.LVL93:
 1126              	.L52:
 970:Drivers/STM32F3xx_HAL_Driver/Src/stm32f3xx_hal_pcd.c **** }
 1127              		.loc 1 970 0
 1128 0388 70BC     		pop	{r4, r5, r6}
 1129              	.LCFI10:
 1130              		.cfi_restore 6
 1131              		.cfi_restore 5
ARM GAS  /tmp/ccwKMGBI.s 			page 38


 1132              		.cfi_restore 4
 1133              		.cfi_def_cfa_offset 0
 1134 038a 7047     		bx	lr
 1135              		.cfi_endproc
 1136              	.LFE146:
 1138              		.section	.text.HAL_PCD_EP_Close,"ax",%progbits
 1139              		.align	2
 1140              		.global	HAL_PCD_EP_Close
 1141              		.thumb
 1142              		.thumb_func
 1144              	HAL_PCD_EP_Close:
 1145              	.LFB147:
 971:Drivers/STM32F3xx_HAL_Driver/Src/stm32f3xx_hal_pcd.c **** 
 972:Drivers/STM32F3xx_HAL_Driver/Src/stm32f3xx_hal_pcd.c **** 
 973:Drivers/STM32F3xx_HAL_Driver/Src/stm32f3xx_hal_pcd.c **** /**
 974:Drivers/STM32F3xx_HAL_Driver/Src/stm32f3xx_hal_pcd.c ****   * @brief  Deactivate an endpoint
 975:Drivers/STM32F3xx_HAL_Driver/Src/stm32f3xx_hal_pcd.c ****   * @param  hpcd PCD handle
 976:Drivers/STM32F3xx_HAL_Driver/Src/stm32f3xx_hal_pcd.c ****   * @param  ep_addr endpoint address
 977:Drivers/STM32F3xx_HAL_Driver/Src/stm32f3xx_hal_pcd.c ****   * @retval HAL status
 978:Drivers/STM32F3xx_HAL_Driver/Src/stm32f3xx_hal_pcd.c ****   */
 979:Drivers/STM32F3xx_HAL_Driver/Src/stm32f3xx_hal_pcd.c **** HAL_StatusTypeDef HAL_PCD_EP_Close(PCD_HandleTypeDef *hpcd, uint8_t ep_addr)
 980:Drivers/STM32F3xx_HAL_Driver/Src/stm32f3xx_hal_pcd.c **** {  
 1146              		.loc 1 980 0
 1147              		.cfi_startproc
 1148              		@ args = 0, pretend = 0, frame = 0
 1149              		@ frame_needed = 0, uses_anonymous_args = 0
 1150              		@ link register save eliminated.
 1151              	.LVL94:
 1152 0000 30B4     		push	{r4, r5}
 1153              	.LCFI11:
 1154              		.cfi_def_cfa_offset 8
 1155              		.cfi_offset 4, -8
 1156              		.cfi_offset 5, -4
 981:Drivers/STM32F3xx_HAL_Driver/Src/stm32f3xx_hal_pcd.c ****   PCD_EPTypeDef *ep;
 982:Drivers/STM32F3xx_HAL_Driver/Src/stm32f3xx_hal_pcd.c ****   
 983:Drivers/STM32F3xx_HAL_Driver/Src/stm32f3xx_hal_pcd.c ****   if ((ep_addr & 0x80U) == 0x80U)
 1157              		.loc 1 983 0
 1158 0002 4AB2     		sxtb	r2, r1
 1159 0004 002A     		cmp	r2, #0
 1160 0006 07DA     		bge	.L76
 984:Drivers/STM32F3xx_HAL_Driver/Src/stm32f3xx_hal_pcd.c ****   {
 985:Drivers/STM32F3xx_HAL_Driver/Src/stm32f3xx_hal_pcd.c ****     ep = &hpcd->IN_ep[ep_addr & 0x7F];
 1161              		.loc 1 985 0
 1162 0008 01F07F04 		and	r4, r1, #127
 1163 000c C4EBC404 		rsb	r4, r4, r4, lsl #3
 1164 0010 A300     		lsls	r3, r4, #2
 1165 0012 2833     		adds	r3, r3, #40
 1166 0014 0344     		add	r3, r3, r0
 1167              	.LVL95:
 1168 0016 08E0     		b	.L77
 1169              	.LVL96:
 1170              	.L76:
 986:Drivers/STM32F3xx_HAL_Driver/Src/stm32f3xx_hal_pcd.c ****   }
 987:Drivers/STM32F3xx_HAL_Driver/Src/stm32f3xx_hal_pcd.c ****   else
 988:Drivers/STM32F3xx_HAL_Driver/Src/stm32f3xx_hal_pcd.c ****   {
 989:Drivers/STM32F3xx_HAL_Driver/Src/stm32f3xx_hal_pcd.c ****     ep = &hpcd->OUT_ep[ep_addr & 0x7F];
 1171              		.loc 1 989 0
ARM GAS  /tmp/ccwKMGBI.s 			page 39


 1172 0018 01F07F04 		and	r4, r1, #127
 1173 001c C4EBC404 		rsb	r4, r4, r4, lsl #3
 1174 0020 A300     		lsls	r3, r4, #2
 1175 0022 03F5E473 		add	r3, r3, #456
 1176 0026 0344     		add	r3, r3, r0
 1177 0028 0433     		adds	r3, r3, #4
 1178              	.LVL97:
 1179              	.L77:
 990:Drivers/STM32F3xx_HAL_Driver/Src/stm32f3xx_hal_pcd.c ****   }
 991:Drivers/STM32F3xx_HAL_Driver/Src/stm32f3xx_hal_pcd.c ****   ep->num   = ep_addr & 0x7FU;
 1180              		.loc 1 991 0
 1181 002a 01F07F01 		and	r1, r1, #127
 1182              	.LVL98:
 1183 002e 1970     		strb	r1, [r3]
 992:Drivers/STM32F3xx_HAL_Driver/Src/stm32f3xx_hal_pcd.c ****   
 993:Drivers/STM32F3xx_HAL_Driver/Src/stm32f3xx_hal_pcd.c ****   ep->is_in = (0x80U & ep_addr) != 0U;
 1184              		.loc 1 993 0
 1185 0030 D20F     		lsrs	r2, r2, #31
 1186              	.LVL99:
 1187 0032 5A70     		strb	r2, [r3, #1]
 994:Drivers/STM32F3xx_HAL_Driver/Src/stm32f3xx_hal_pcd.c ****   
 995:Drivers/STM32F3xx_HAL_Driver/Src/stm32f3xx_hal_pcd.c ****   __HAL_LOCK(hpcd); 
 1188              		.loc 1 995 0
 1189 0034 90F87023 		ldrb	r2, [r0, #880]	@ zero_extendqisi2
 1190 0038 012A     		cmp	r2, #1
 1191 003a 00F0E780 		beq	.L89
 1192              		.loc 1 995 0 is_stmt 0 discriminator 2
 1193 003e 0122     		movs	r2, #1
 1194 0040 80F87023 		strb	r2, [r0, #880]
 996:Drivers/STM32F3xx_HAL_Driver/Src/stm32f3xx_hal_pcd.c **** 
 997:Drivers/STM32F3xx_HAL_Driver/Src/stm32f3xx_hal_pcd.c ****   if (ep->doublebuffer == 0U) 
 1195              		.loc 1 997 0 is_stmt 1 discriminator 2
 1196 0044 9A7A     		ldrb	r2, [r3, #10]	@ zero_extendqisi2
 1197 0046 002A     		cmp	r2, #0
 1198 0048 43D1     		bne	.L79
 998:Drivers/STM32F3xx_HAL_Driver/Src/stm32f3xx_hal_pcd.c ****   {
 999:Drivers/STM32F3xx_HAL_Driver/Src/stm32f3xx_hal_pcd.c ****     if (ep->is_in)
 1199              		.loc 1 999 0
 1200 004a 5A78     		ldrb	r2, [r3, #1]	@ zero_extendqisi2
 1201 004c 02B3     		cbz	r2, .L80
1000:Drivers/STM32F3xx_HAL_Driver/Src/stm32f3xx_hal_pcd.c ****     {
1001:Drivers/STM32F3xx_HAL_Driver/Src/stm32f3xx_hal_pcd.c ****       PCD_CLEAR_TX_DTOG(hpcd->Instance, ep->num)
 1202              		.loc 1 1001 0
 1203 004e 0468     		ldr	r4, [r0]
 1204 0050 1D78     		ldrb	r5, [r3]	@ zero_extendqisi2
 1205 0052 34F82520 		ldrh	r2, [r4, r5, lsl #2]
 1206 0056 02F04001 		and	r1, r2, #64
 1207 005a 89B2     		uxth	r1, r1
 1208 005c 49B1     		cbz	r1, .L81
 1209              		.loc 1 1001 0 is_stmt 0 discriminator 1
 1210 005e 22F0F002 		bic	r2, r2, #240
 1211 0062 1205     		lsls	r2, r2, #20
 1212 0064 120D     		lsrs	r2, r2, #20
 1213 0066 42F40042 		orr	r2, r2, #32768
 1214 006a 42F0C002 		orr	r2, r2, #192
 1215 006e 24F82520 		strh	r2, [r4, r5, lsl #2]	@ movhi
 1216              	.L81:
ARM GAS  /tmp/ccwKMGBI.s 			page 40


 1217              	.LBB10:
1002:Drivers/STM32F3xx_HAL_Driver/Src/stm32f3xx_hal_pcd.c ****       /* Configure DISABLE status for the Endpoint*/
1003:Drivers/STM32F3xx_HAL_Driver/Src/stm32f3xx_hal_pcd.c ****       PCD_SET_EP_TX_STATUS(hpcd->Instance, ep->num, USB_EP_TX_DIS) 
 1218              		.loc 1 1003 0 is_stmt 1
 1219 0072 0268     		ldr	r2, [r0]
 1220 0074 1978     		ldrb	r1, [r3]	@ zero_extendqisi2
 1221 0076 32F82130 		ldrh	r3, [r2, r1, lsl #2]
 1222              	.LVL100:
 1223 007a 23F4E043 		bic	r3, r3, #28672
 1224 007e 23F04003 		bic	r3, r3, #64
 1225              	.LVL101:
 1226 0082 43F40043 		orr	r3, r3, #32768
 1227              	.LVL102:
 1228 0086 43F08003 		orr	r3, r3, #128
 1229 008a 22F82130 		strh	r3, [r2, r1, lsl #2]	@ movhi
 1230              	.LVL103:
 1231              	.LBE10:
 1232 008e B8E0     		b	.L82
 1233              	.LVL104:
 1234              	.L80:
1004:Drivers/STM32F3xx_HAL_Driver/Src/stm32f3xx_hal_pcd.c ****     }
1005:Drivers/STM32F3xx_HAL_Driver/Src/stm32f3xx_hal_pcd.c ****     else
1006:Drivers/STM32F3xx_HAL_Driver/Src/stm32f3xx_hal_pcd.c ****     {
1007:Drivers/STM32F3xx_HAL_Driver/Src/stm32f3xx_hal_pcd.c ****       PCD_CLEAR_RX_DTOG(hpcd->Instance, ep->num)
 1235              		.loc 1 1007 0
 1236 0090 0468     		ldr	r4, [r0]
 1237 0092 1D78     		ldrb	r5, [r3]	@ zero_extendqisi2
 1238 0094 34F82520 		ldrh	r2, [r4, r5, lsl #2]
 1239 0098 02F48041 		and	r1, r2, #16384
 1240 009c 89B2     		uxth	r1, r1
 1241 009e 49B1     		cbz	r1, .L83
 1242              		.loc 1 1007 0 is_stmt 0 discriminator 1
 1243 00a0 22F0F002 		bic	r2, r2, #240
 1244 00a4 1205     		lsls	r2, r2, #20
 1245 00a6 120D     		lsrs	r2, r2, #20
 1246 00a8 42F44042 		orr	r2, r2, #49152
 1247 00ac 42F08002 		orr	r2, r2, #128
 1248 00b0 24F82520 		strh	r2, [r4, r5, lsl #2]	@ movhi
 1249              	.L83:
 1250              	.LBB11:
1008:Drivers/STM32F3xx_HAL_Driver/Src/stm32f3xx_hal_pcd.c ****       /* Configure DISABLE status for the Endpoint*/
1009:Drivers/STM32F3xx_HAL_Driver/Src/stm32f3xx_hal_pcd.c ****       PCD_SET_EP_RX_STATUS(hpcd->Instance, ep->num, USB_EP_RX_DIS)
 1251              		.loc 1 1009 0 is_stmt 1
 1252 00b4 0268     		ldr	r2, [r0]
 1253 00b6 1978     		ldrb	r1, [r3]	@ zero_extendqisi2
 1254 00b8 32F82130 		ldrh	r3, [r2, r1, lsl #2]
 1255              	.LVL105:
 1256 00bc 23F48043 		bic	r3, r3, #16384
 1257 00c0 23F07003 		bic	r3, r3, #112
 1258              	.LVL106:
 1259 00c4 43F40043 		orr	r3, r3, #32768
 1260              	.LVL107:
 1261 00c8 43F08003 		orr	r3, r3, #128
 1262 00cc 22F82130 		strh	r3, [r2, r1, lsl #2]	@ movhi
 1263              	.LVL108:
 1264 00d0 97E0     		b	.L82
 1265              	.LVL109:
ARM GAS  /tmp/ccwKMGBI.s 			page 41


 1266              	.L79:
 1267              	.LBE11:
1010:Drivers/STM32F3xx_HAL_Driver/Src/stm32f3xx_hal_pcd.c ****     }
1011:Drivers/STM32F3xx_HAL_Driver/Src/stm32f3xx_hal_pcd.c ****   }
1012:Drivers/STM32F3xx_HAL_Driver/Src/stm32f3xx_hal_pcd.c ****   /*Double Buffer*/
1013:Drivers/STM32F3xx_HAL_Driver/Src/stm32f3xx_hal_pcd.c ****   else
1014:Drivers/STM32F3xx_HAL_Driver/Src/stm32f3xx_hal_pcd.c ****   { 
1015:Drivers/STM32F3xx_HAL_Driver/Src/stm32f3xx_hal_pcd.c ****     if (ep->is_in==0U)
 1268              		.loc 1 1015 0
 1269 00d2 5A78     		ldrb	r2, [r3, #1]	@ zero_extendqisi2
 1270 00d4 002A     		cmp	r2, #0
 1271 00d6 4AD1     		bne	.L84
1016:Drivers/STM32F3xx_HAL_Driver/Src/stm32f3xx_hal_pcd.c ****     {
1017:Drivers/STM32F3xx_HAL_Driver/Src/stm32f3xx_hal_pcd.c ****       /* Clear the data toggle bits for the endpoint IN/OUT*/
1018:Drivers/STM32F3xx_HAL_Driver/Src/stm32f3xx_hal_pcd.c ****       PCD_CLEAR_RX_DTOG(hpcd->Instance, ep->num)
 1272              		.loc 1 1018 0
 1273 00d8 0468     		ldr	r4, [r0]
 1274 00da 1D78     		ldrb	r5, [r3]	@ zero_extendqisi2
 1275 00dc 34F82520 		ldrh	r2, [r4, r5, lsl #2]
 1276 00e0 02F48041 		and	r1, r2, #16384
 1277 00e4 89B2     		uxth	r1, r1
 1278 00e6 49B1     		cbz	r1, .L85
 1279              		.loc 1 1018 0 is_stmt 0 discriminator 1
 1280 00e8 22F0F002 		bic	r2, r2, #240
 1281 00ec 1205     		lsls	r2, r2, #20
 1282 00ee 120D     		lsrs	r2, r2, #20
 1283 00f0 42F44042 		orr	r2, r2, #49152
 1284 00f4 42F08002 		orr	r2, r2, #128
 1285 00f8 24F82520 		strh	r2, [r4, r5, lsl #2]	@ movhi
 1286              	.L85:
1019:Drivers/STM32F3xx_HAL_Driver/Src/stm32f3xx_hal_pcd.c ****       PCD_CLEAR_TX_DTOG(hpcd->Instance, ep->num)
 1287              		.loc 1 1019 0 is_stmt 1
 1288 00fc 0468     		ldr	r4, [r0]
 1289 00fe 1D78     		ldrb	r5, [r3]	@ zero_extendqisi2
 1290 0100 34F82520 		ldrh	r2, [r4, r5, lsl #2]
 1291 0104 02F04001 		and	r1, r2, #64
 1292 0108 89B2     		uxth	r1, r1
 1293 010a 49B1     		cbz	r1, .L86
 1294              		.loc 1 1019 0 is_stmt 0 discriminator 1
 1295 010c 22F0F002 		bic	r2, r2, #240
 1296 0110 1205     		lsls	r2, r2, #20
 1297 0112 120D     		lsrs	r2, r2, #20
 1298 0114 42F40042 		orr	r2, r2, #32768
 1299 0118 42F0C002 		orr	r2, r2, #192
 1300 011c 24F82520 		strh	r2, [r4, r5, lsl #2]	@ movhi
 1301              	.L86:
1020:Drivers/STM32F3xx_HAL_Driver/Src/stm32f3xx_hal_pcd.c ****       
1021:Drivers/STM32F3xx_HAL_Driver/Src/stm32f3xx_hal_pcd.c ****       /* Reset value of the data toggle bits for the endpoint out*/
1022:Drivers/STM32F3xx_HAL_Driver/Src/stm32f3xx_hal_pcd.c ****       PCD_TX_DTOG(hpcd->Instance, ep->num);
 1302              		.loc 1 1022 0 is_stmt 1
 1303 0120 0168     		ldr	r1, [r0]
 1304 0122 1C78     		ldrb	r4, [r3]	@ zero_extendqisi2
 1305 0124 31F82420 		ldrh	r2, [r1, r4, lsl #2]
 1306 0128 22F0F002 		bic	r2, r2, #240
 1307 012c 1205     		lsls	r2, r2, #20
 1308 012e 120D     		lsrs	r2, r2, #20
 1309 0130 42F40042 		orr	r2, r2, #32768
ARM GAS  /tmp/ccwKMGBI.s 			page 42


 1310 0134 42F0C002 		orr	r2, r2, #192
 1311 0138 21F82420 		strh	r2, [r1, r4, lsl #2]	@ movhi
 1312              	.LBB12:
1023:Drivers/STM32F3xx_HAL_Driver/Src/stm32f3xx_hal_pcd.c ****       
1024:Drivers/STM32F3xx_HAL_Driver/Src/stm32f3xx_hal_pcd.c ****       PCD_SET_EP_RX_STATUS(hpcd->Instance, ep->num, USB_EP_RX_DIS)
 1313              		.loc 1 1024 0
 1314 013c 0468     		ldr	r4, [r0]
 1315 013e 1D78     		ldrb	r5, [r3]	@ zero_extendqisi2
 1316 0140 34F82520 		ldrh	r2, [r4, r5, lsl #2]
 1317 0144 22F48042 		bic	r2, r2, #16384
 1318 0148 22F07002 		bic	r2, r2, #112
 1319              	.LVL110:
 1320 014c 48F28001 		movw	r1, #32896
 1321 0150 0A43     		orrs	r2, r2, r1
 1322              	.LVL111:
 1323 0152 24F82520 		strh	r2, [r4, r5, lsl #2]	@ movhi
 1324              	.LVL112:
 1325              	.LBE12:
 1326              	.LBB13:
1025:Drivers/STM32F3xx_HAL_Driver/Src/stm32f3xx_hal_pcd.c ****       PCD_SET_EP_TX_STATUS(hpcd->Instance, ep->num, USB_EP_TX_DIS)
 1327              		.loc 1 1025 0
 1328 0156 0268     		ldr	r2, [r0]
 1329 0158 1C78     		ldrb	r4, [r3]	@ zero_extendqisi2
 1330 015a 32F82430 		ldrh	r3, [r2, r4, lsl #2]
 1331              	.LVL113:
 1332 015e 23F4E043 		bic	r3, r3, #28672
 1333 0162 23F04003 		bic	r3, r3, #64
 1334              	.LVL114:
 1335 0166 0B43     		orrs	r3, r3, r1
 1336              	.LVL115:
 1337 0168 22F82430 		strh	r3, [r2, r4, lsl #2]	@ movhi
 1338              	.LVL116:
 1339              	.LBE13:
 1340 016c 49E0     		b	.L82
 1341              	.LVL117:
 1342              	.L84:
1026:Drivers/STM32F3xx_HAL_Driver/Src/stm32f3xx_hal_pcd.c ****     }
1027:Drivers/STM32F3xx_HAL_Driver/Src/stm32f3xx_hal_pcd.c ****     else
1028:Drivers/STM32F3xx_HAL_Driver/Src/stm32f3xx_hal_pcd.c ****     {
1029:Drivers/STM32F3xx_HAL_Driver/Src/stm32f3xx_hal_pcd.c ****       /* Clear the data toggle bits for the endpoint IN/OUT*/
1030:Drivers/STM32F3xx_HAL_Driver/Src/stm32f3xx_hal_pcd.c ****       PCD_CLEAR_RX_DTOG(hpcd->Instance, ep->num)
 1343              		.loc 1 1030 0
 1344 016e 0468     		ldr	r4, [r0]
 1345 0170 1D78     		ldrb	r5, [r3]	@ zero_extendqisi2
 1346 0172 34F82520 		ldrh	r2, [r4, r5, lsl #2]
 1347 0176 02F48041 		and	r1, r2, #16384
 1348 017a 89B2     		uxth	r1, r1
 1349 017c 49B1     		cbz	r1, .L87
 1350              		.loc 1 1030 0 is_stmt 0 discriminator 1
 1351 017e 22F0F002 		bic	r2, r2, #240
 1352 0182 1205     		lsls	r2, r2, #20
 1353 0184 120D     		lsrs	r2, r2, #20
 1354 0186 42F44042 		orr	r2, r2, #49152
 1355 018a 42F08002 		orr	r2, r2, #128
 1356 018e 24F82520 		strh	r2, [r4, r5, lsl #2]	@ movhi
 1357              	.L87:
1031:Drivers/STM32F3xx_HAL_Driver/Src/stm32f3xx_hal_pcd.c ****       PCD_CLEAR_TX_DTOG(hpcd->Instance, ep->num)
ARM GAS  /tmp/ccwKMGBI.s 			page 43


 1358              		.loc 1 1031 0 is_stmt 1
 1359 0192 0468     		ldr	r4, [r0]
 1360 0194 1D78     		ldrb	r5, [r3]	@ zero_extendqisi2
 1361 0196 34F82520 		ldrh	r2, [r4, r5, lsl #2]
 1362 019a 02F04001 		and	r1, r2, #64
 1363 019e 89B2     		uxth	r1, r1
 1364 01a0 49B1     		cbz	r1, .L88
 1365              		.loc 1 1031 0 is_stmt 0 discriminator 1
 1366 01a2 22F0F002 		bic	r2, r2, #240
 1367 01a6 1205     		lsls	r2, r2, #20
 1368 01a8 120D     		lsrs	r2, r2, #20
 1369 01aa 42F40042 		orr	r2, r2, #32768
 1370 01ae 42F0C002 		orr	r2, r2, #192
 1371 01b2 24F82520 		strh	r2, [r4, r5, lsl #2]	@ movhi
 1372              	.L88:
1032:Drivers/STM32F3xx_HAL_Driver/Src/stm32f3xx_hal_pcd.c ****       PCD_RX_DTOG(hpcd->Instance, ep->num);
 1373              		.loc 1 1032 0 is_stmt 1
 1374 01b6 0168     		ldr	r1, [r0]
 1375 01b8 1C78     		ldrb	r4, [r3]	@ zero_extendqisi2
 1376 01ba 31F82420 		ldrh	r2, [r1, r4, lsl #2]
 1377 01be 22F0F002 		bic	r2, r2, #240
 1378 01c2 1205     		lsls	r2, r2, #20
 1379 01c4 120D     		lsrs	r2, r2, #20
 1380 01c6 42F44042 		orr	r2, r2, #49152
 1381 01ca 42F08002 		orr	r2, r2, #128
 1382 01ce 21F82420 		strh	r2, [r1, r4, lsl #2]	@ movhi
 1383              	.LBB14:
1033:Drivers/STM32F3xx_HAL_Driver/Src/stm32f3xx_hal_pcd.c ****       /* Configure DISABLE status for the Endpoint*/
1034:Drivers/STM32F3xx_HAL_Driver/Src/stm32f3xx_hal_pcd.c ****       PCD_SET_EP_TX_STATUS(hpcd->Instance, ep->num, USB_EP_TX_DIS)
 1384              		.loc 1 1034 0
 1385 01d2 0468     		ldr	r4, [r0]
 1386 01d4 1D78     		ldrb	r5, [r3]	@ zero_extendqisi2
 1387 01d6 34F82520 		ldrh	r2, [r4, r5, lsl #2]
 1388 01da 22F4E042 		bic	r2, r2, #28672
 1389 01de 22F04002 		bic	r2, r2, #64
 1390              	.LVL118:
 1391 01e2 48F28001 		movw	r1, #32896
 1392 01e6 0A43     		orrs	r2, r2, r1
 1393              	.LVL119:
 1394 01e8 24F82520 		strh	r2, [r4, r5, lsl #2]	@ movhi
 1395              	.LVL120:
 1396              	.LBE14:
 1397              	.LBB15:
1035:Drivers/STM32F3xx_HAL_Driver/Src/stm32f3xx_hal_pcd.c ****       PCD_SET_EP_RX_STATUS(hpcd->Instance, ep->num, USB_EP_RX_DIS)
 1398              		.loc 1 1035 0
 1399 01ec 0268     		ldr	r2, [r0]
 1400 01ee 1C78     		ldrb	r4, [r3]	@ zero_extendqisi2
 1401 01f0 32F82430 		ldrh	r3, [r2, r4, lsl #2]
 1402              	.LVL121:
 1403 01f4 23F48043 		bic	r3, r3, #16384
 1404 01f8 23F07003 		bic	r3, r3, #112
 1405              	.LVL122:
 1406 01fc 0B43     		orrs	r3, r3, r1
 1407              	.LVL123:
 1408 01fe 22F82430 		strh	r3, [r2, r4, lsl #2]	@ movhi
 1409              	.LVL124:
 1410              	.L82:
ARM GAS  /tmp/ccwKMGBI.s 			page 44


 1411              	.LBE15:
1036:Drivers/STM32F3xx_HAL_Driver/Src/stm32f3xx_hal_pcd.c ****     }
1037:Drivers/STM32F3xx_HAL_Driver/Src/stm32f3xx_hal_pcd.c ****   } 
1038:Drivers/STM32F3xx_HAL_Driver/Src/stm32f3xx_hal_pcd.c ****   
1039:Drivers/STM32F3xx_HAL_Driver/Src/stm32f3xx_hal_pcd.c ****   __HAL_UNLOCK(hpcd);   
 1412              		.loc 1 1039 0
 1413 0202 0023     		movs	r3, #0
 1414 0204 80F87033 		strb	r3, [r0, #880]
1040:Drivers/STM32F3xx_HAL_Driver/Src/stm32f3xx_hal_pcd.c ****   return HAL_OK;
 1415              		.loc 1 1040 0
 1416 0208 1846     		mov	r0, r3
 1417              	.LVL125:
 1418 020a 00E0     		b	.L78
 1419              	.LVL126:
 1420              	.L89:
 995:Drivers/STM32F3xx_HAL_Driver/Src/stm32f3xx_hal_pcd.c **** 
 1421              		.loc 1 995 0
 1422 020c 0220     		movs	r0, #2
 1423              	.LVL127:
 1424              	.L78:
1041:Drivers/STM32F3xx_HAL_Driver/Src/stm32f3xx_hal_pcd.c **** }
 1425              		.loc 1 1041 0
 1426 020e 30BC     		pop	{r4, r5}
 1427              	.LCFI12:
 1428              		.cfi_restore 5
 1429              		.cfi_restore 4
 1430              		.cfi_def_cfa_offset 0
 1431 0210 7047     		bx	lr
 1432              		.cfi_endproc
 1433              	.LFE147:
 1435 0212 00BF     		.section	.text.HAL_PCD_EP_Receive,"ax",%progbits
 1436              		.align	2
 1437              		.global	HAL_PCD_EP_Receive
 1438              		.thumb
 1439              		.thumb_func
 1441              	HAL_PCD_EP_Receive:
 1442              	.LFB148:
1042:Drivers/STM32F3xx_HAL_Driver/Src/stm32f3xx_hal_pcd.c **** 
1043:Drivers/STM32F3xx_HAL_Driver/Src/stm32f3xx_hal_pcd.c **** 
1044:Drivers/STM32F3xx_HAL_Driver/Src/stm32f3xx_hal_pcd.c **** /**
1045:Drivers/STM32F3xx_HAL_Driver/Src/stm32f3xx_hal_pcd.c ****   * @brief  Receive an amount of data  
1046:Drivers/STM32F3xx_HAL_Driver/Src/stm32f3xx_hal_pcd.c ****   * @param  hpcd PCD handle
1047:Drivers/STM32F3xx_HAL_Driver/Src/stm32f3xx_hal_pcd.c ****   * @param  ep_addr endpoint address
1048:Drivers/STM32F3xx_HAL_Driver/Src/stm32f3xx_hal_pcd.c ****   * @param  pBuf pointer to the reception buffer   
1049:Drivers/STM32F3xx_HAL_Driver/Src/stm32f3xx_hal_pcd.c ****   * @param  len amount of data to be received
1050:Drivers/STM32F3xx_HAL_Driver/Src/stm32f3xx_hal_pcd.c ****   * @retval HAL status
1051:Drivers/STM32F3xx_HAL_Driver/Src/stm32f3xx_hal_pcd.c ****   */
1052:Drivers/STM32F3xx_HAL_Driver/Src/stm32f3xx_hal_pcd.c **** HAL_StatusTypeDef HAL_PCD_EP_Receive(PCD_HandleTypeDef *hpcd, uint8_t ep_addr, uint8_t *pBuf, uint3
1053:Drivers/STM32F3xx_HAL_Driver/Src/stm32f3xx_hal_pcd.c **** {
 1443              		.loc 1 1053 0
 1444              		.cfi_startproc
 1445              		@ args = 0, pretend = 0, frame = 0
 1446              		@ frame_needed = 0, uses_anonymous_args = 0
 1447              		@ link register save eliminated.
 1448              	.LVL128:
 1449 0000 70B4     		push	{r4, r5, r6}
 1450              	.LCFI13:
ARM GAS  /tmp/ccwKMGBI.s 			page 45


 1451              		.cfi_def_cfa_offset 12
 1452              		.cfi_offset 4, -12
 1453              		.cfi_offset 5, -8
 1454              		.cfi_offset 6, -4
 1455 0002 01F07F01 		and	r1, r1, #127
 1456              	.LVL129:
1054:Drivers/STM32F3xx_HAL_Driver/Src/stm32f3xx_hal_pcd.c ****   
1055:Drivers/STM32F3xx_HAL_Driver/Src/stm32f3xx_hal_pcd.c ****  PCD_EPTypeDef *ep;
1056:Drivers/STM32F3xx_HAL_Driver/Src/stm32f3xx_hal_pcd.c ****   
1057:Drivers/STM32F3xx_HAL_Driver/Src/stm32f3xx_hal_pcd.c ****   ep = &hpcd->OUT_ep[ep_addr & 0x7F];
1058:Drivers/STM32F3xx_HAL_Driver/Src/stm32f3xx_hal_pcd.c ****   
1059:Drivers/STM32F3xx_HAL_Driver/Src/stm32f3xx_hal_pcd.c ****   /*setup and start the Xfer */
1060:Drivers/STM32F3xx_HAL_Driver/Src/stm32f3xx_hal_pcd.c ****   ep->xfer_buff = pBuf;  
 1457              		.loc 1 1060 0
 1458 0006 CD00     		lsls	r5, r1, #3
 1459 0008 6D1A     		subs	r5, r5, r1
 1460 000a AC00     		lsls	r4, r5, #2
 1461 000c 0444     		add	r4, r4, r0
 1462 000e C4F8DC21 		str	r2, [r4, #476]
1061:Drivers/STM32F3xx_HAL_Driver/Src/stm32f3xx_hal_pcd.c ****   ep->xfer_len = len;
 1463              		.loc 1 1061 0
 1464 0012 C4F8E031 		str	r3, [r4, #480]
1062:Drivers/STM32F3xx_HAL_Driver/Src/stm32f3xx_hal_pcd.c ****   ep->xfer_count = 0U;
 1465              		.loc 1 1062 0
 1466 0016 0022     		movs	r2, #0
 1467              	.LVL130:
 1468 0018 C4F8E421 		str	r2, [r4, #484]
1063:Drivers/STM32F3xx_HAL_Driver/Src/stm32f3xx_hal_pcd.c ****   ep->is_in = 0U;
 1469              		.loc 1 1063 0
 1470 001c 84F8CD21 		strb	r2, [r4, #461]
1064:Drivers/STM32F3xx_HAL_Driver/Src/stm32f3xx_hal_pcd.c ****   ep->num = ep_addr & 0x7FU;
 1471              		.loc 1 1064 0
 1472 0020 84F8CC11 		strb	r1, [r4, #460]
1065:Drivers/STM32F3xx_HAL_Driver/Src/stm32f3xx_hal_pcd.c **** 
1066:Drivers/STM32F3xx_HAL_Driver/Src/stm32f3xx_hal_pcd.c ****   /* Multi packet transfer*/
1067:Drivers/STM32F3xx_HAL_Driver/Src/stm32f3xx_hal_pcd.c ****   if (ep->xfer_len > ep->maxpacket)
 1473              		.loc 1 1067 0
 1474 0024 D4F8D821 		ldr	r2, [r4, #472]
 1475 0028 9342     		cmp	r3, r2
 1476 002a 08D9     		bls	.L92
 1477              	.LVL131:
1068:Drivers/STM32F3xx_HAL_Driver/Src/stm32f3xx_hal_pcd.c ****   {
1069:Drivers/STM32F3xx_HAL_Driver/Src/stm32f3xx_hal_pcd.c ****     len=ep->maxpacket;
1070:Drivers/STM32F3xx_HAL_Driver/Src/stm32f3xx_hal_pcd.c ****     ep->xfer_len-=len; 
 1478              		.loc 1 1070 0
 1479 002c C1EBC105 		rsb	r5, r1, r1, lsl #3
 1480 0030 AC00     		lsls	r4, r5, #2
 1481              	.LVL132:
 1482 0032 0444     		add	r4, r4, r0
 1483 0034 9B1A     		subs	r3, r3, r2
 1484 0036 C4F8E031 		str	r3, [r4, #480]
 1485              	.LVL133:
1069:Drivers/STM32F3xx_HAL_Driver/Src/stm32f3xx_hal_pcd.c ****     ep->xfer_len-=len; 
 1486              		.loc 1 1069 0
 1487 003a 1346     		mov	r3, r2
 1488 003c 06E0     		b	.L93
 1489              	.LVL134:
ARM GAS  /tmp/ccwKMGBI.s 			page 46


 1490              	.L92:
1071:Drivers/STM32F3xx_HAL_Driver/Src/stm32f3xx_hal_pcd.c ****   }
1072:Drivers/STM32F3xx_HAL_Driver/Src/stm32f3xx_hal_pcd.c ****   else
1073:Drivers/STM32F3xx_HAL_Driver/Src/stm32f3xx_hal_pcd.c ****   {
1074:Drivers/STM32F3xx_HAL_Driver/Src/stm32f3xx_hal_pcd.c ****     len=ep->xfer_len;
1075:Drivers/STM32F3xx_HAL_Driver/Src/stm32f3xx_hal_pcd.c ****     ep->xfer_len =0U;
 1491              		.loc 1 1075 0
 1492 003e C1EBC104 		rsb	r4, r1, r1, lsl #3
 1493              	.LVL135:
 1494 0042 A200     		lsls	r2, r4, #2
 1495 0044 0244     		add	r2, r2, r0
 1496 0046 0024     		movs	r4, #0
 1497 0048 C2F8E041 		str	r4, [r2, #480]
 1498              	.LVL136:
 1499              	.L93:
1076:Drivers/STM32F3xx_HAL_Driver/Src/stm32f3xx_hal_pcd.c ****   }
1077:Drivers/STM32F3xx_HAL_Driver/Src/stm32f3xx_hal_pcd.c ****   
1078:Drivers/STM32F3xx_HAL_Driver/Src/stm32f3xx_hal_pcd.c ****   /* configure and validate Rx endpoint */
1079:Drivers/STM32F3xx_HAL_Driver/Src/stm32f3xx_hal_pcd.c ****   if (ep->doublebuffer == 0U) 
 1500              		.loc 1 1079 0
 1501 004c C1EBC104 		rsb	r4, r1, r1, lsl #3
 1502 0050 A200     		lsls	r2, r4, #2
 1503 0052 0244     		add	r2, r2, r0
 1504 0054 92F8D621 		ldrb	r2, [r2, #470]	@ zero_extendqisi2
 1505 0058 4ABB     		cbnz	r2, .L94
 1506              	.LBB16:
1080:Drivers/STM32F3xx_HAL_Driver/Src/stm32f3xx_hal_pcd.c ****   {
1081:Drivers/STM32F3xx_HAL_Driver/Src/stm32f3xx_hal_pcd.c ****     /*Set RX buffer count*/
1082:Drivers/STM32F3xx_HAL_Driver/Src/stm32f3xx_hal_pcd.c ****     PCD_SET_EP_RX_CNT(hpcd->Instance, ep->num, len)
 1507              		.loc 1 1082 0
 1508 005a 0568     		ldr	r5, [r0]
 1509 005c B5F85040 		ldrh	r4, [r5, #80]
 1510 0060 C1EBC106 		rsb	r6, r1, r1, lsl #3
 1511 0064 B200     		lsls	r2, r6, #2
 1512 0066 0244     		add	r2, r2, r0
 1513 0068 92F8CC21 		ldrb	r2, [r2, #460]	@ zero_extendqisi2
 1514 006c D200     		lsls	r2, r2, #3
 1515 006e 12FA84F2 		uxtah	r2, r2, r4
 1516 0072 0632     		adds	r2, r2, #6
 1517 0074 05EB4202 		add	r2, r5, r2, lsl #1
 1518              	.LVL137:
 1519              	.LBB17:
 1520 0078 3E2B     		cmp	r3, #62
 1521 007a 0DD9     		bls	.L95
 1522              		.loc 1 1082 0 is_stmt 0 discriminator 1
 1523 007c C3F34F14 		ubfx	r4, r3, #5, #16
 1524              	.LVL138:
 1525 0080 13F01F0F 		tst	r3, #31
 1526 0084 01D1     		bne	.L96
 1527              		.loc 1 1082 0 discriminator 3
 1528 0086 013C     		subs	r4, r4, #1
 1529              	.LVL139:
 1530 0088 A4B2     		uxth	r4, r4
 1531              	.LVL140:
 1532              	.L96:
 1533              		.loc 1 1082 0 discriminator 5
 1534 008a 6FEAC464 		mvn	r4, r4, lsl #27
ARM GAS  /tmp/ccwKMGBI.s 			page 47


 1535              	.LVL141:
 1536 008e 6FEA5444 		mvn	r4, r4, lsr #17
 1537 0092 A2F80044 		strh	r4, [r2, #1024]	@ movhi
 1538 0096 4EE0     		b	.L97
 1539              	.L95:
 1540              		.loc 1 1082 0 discriminator 2
 1541 0098 C3F34F04 		ubfx	r4, r3, #1, #16
 1542              	.LVL142:
 1543 009c 13F0010F 		tst	r3, #1
 1544 00a0 01D0     		beq	.L98
 1545              		.loc 1 1082 0 discriminator 6
 1546 00a2 0134     		adds	r4, r4, #1
 1547              	.LVL143:
 1548 00a4 A4B2     		uxth	r4, r4
 1549              	.LVL144:
 1550              	.L98:
 1551              		.loc 1 1082 0 discriminator 8
 1552 00a6 A402     		lsls	r4, r4, #10
 1553              	.LVL145:
 1554 00a8 A2F80044 		strh	r4, [r2, #1024]	@ movhi
 1555 00ac 43E0     		b	.L97
 1556              	.LVL146:
 1557              	.L94:
 1558              	.LBE17:
 1559              	.LBE16:
1083:Drivers/STM32F3xx_HAL_Driver/Src/stm32f3xx_hal_pcd.c ****   }
1084:Drivers/STM32F3xx_HAL_Driver/Src/stm32f3xx_hal_pcd.c ****   else
1085:Drivers/STM32F3xx_HAL_Driver/Src/stm32f3xx_hal_pcd.c ****   {
1086:Drivers/STM32F3xx_HAL_Driver/Src/stm32f3xx_hal_pcd.c ****     /*Set the Double buffer counter*/
1087:Drivers/STM32F3xx_HAL_Driver/Src/stm32f3xx_hal_pcd.c ****     PCD_SET_EP_DBUF1_CNT(hpcd->Instance, ep->num, ep->is_in, len)
 1560              		.loc 1 1087 0 is_stmt 1
 1561 00ae C1EBC104 		rsb	r4, r1, r1, lsl #3
 1562 00b2 A200     		lsls	r2, r4, #2
 1563 00b4 0244     		add	r2, r2, r0
 1564 00b6 92F8CD21 		ldrb	r2, [r2, #461]	@ zero_extendqisi2
 1565 00ba 4ABB     		cbnz	r2, .L99
 1566              	.LBB18:
 1567              		.loc 1 1087 0 is_stmt 0 discriminator 1
 1568 00bc 0568     		ldr	r5, [r0]
 1569 00be B5F85040 		ldrh	r4, [r5, #80]
 1570 00c2 C1EBC106 		rsb	r6, r1, r1, lsl #3
 1571 00c6 B200     		lsls	r2, r6, #2
 1572 00c8 0244     		add	r2, r2, r0
 1573 00ca 92F8CC21 		ldrb	r2, [r2, #460]	@ zero_extendqisi2
 1574 00ce D200     		lsls	r2, r2, #3
 1575 00d0 12FA84F2 		uxtah	r2, r2, r4
 1576 00d4 0632     		adds	r2, r2, #6
 1577 00d6 05EB4202 		add	r2, r5, r2, lsl #1
 1578              	.LVL147:
 1579              	.LBB19:
 1580 00da 3E2B     		cmp	r3, #62
 1581 00dc 0DD9     		bls	.L100
 1582              		.loc 1 1087 0 discriminator 3
 1583 00de C3F34F14 		ubfx	r4, r3, #5, #16
 1584              	.LVL148:
 1585 00e2 13F01F0F 		tst	r3, #31
 1586 00e6 01D1     		bne	.L101
ARM GAS  /tmp/ccwKMGBI.s 			page 48


 1587              		.loc 1 1087 0 discriminator 5
 1588 00e8 013C     		subs	r4, r4, #1
 1589              	.LVL149:
 1590 00ea A4B2     		uxth	r4, r4
 1591              	.LVL150:
 1592              	.L101:
 1593              		.loc 1 1087 0 discriminator 7
 1594 00ec 6FEAC464 		mvn	r4, r4, lsl #27
 1595              	.LVL151:
 1596 00f0 6FEA5444 		mvn	r4, r4, lsr #17
 1597 00f4 A2F80044 		strh	r4, [r2, #1024]	@ movhi
 1598 00f8 1DE0     		b	.L97
 1599              	.L100:
 1600              		.loc 1 1087 0 discriminator 4
 1601 00fa C3F34F04 		ubfx	r4, r3, #1, #16
 1602              	.LVL152:
 1603 00fe 13F0010F 		tst	r3, #1
 1604 0102 01D0     		beq	.L102
 1605              		.loc 1 1087 0 discriminator 8
 1606 0104 0134     		adds	r4, r4, #1
 1607              	.LVL153:
 1608 0106 A4B2     		uxth	r4, r4
 1609              	.LVL154:
 1610              	.L102:
 1611              		.loc 1 1087 0 discriminator 10
 1612 0108 A402     		lsls	r4, r4, #10
 1613              	.LVL155:
 1614 010a A2F80044 		strh	r4, [r2, #1024]	@ movhi
 1615 010e 12E0     		b	.L97
 1616              	.LVL156:
 1617              	.L99:
 1618              	.LBE19:
 1619              	.LBE18:
 1620              		.loc 1 1087 0 discriminator 2
 1621 0110 012A     		cmp	r2, #1
 1622 0112 10D1     		bne	.L97
 1623              		.loc 1 1087 0 discriminator 11
 1624 0114 0568     		ldr	r5, [r0]
 1625 0116 B5F85040 		ldrh	r4, [r5, #80]
 1626 011a C1EBC106 		rsb	r6, r1, r1, lsl #3
 1627 011e B200     		lsls	r2, r6, #2
 1628 0120 0244     		add	r2, r2, r0
 1629 0122 92F8CC21 		ldrb	r2, [r2, #460]	@ zero_extendqisi2
 1630 0126 D200     		lsls	r2, r2, #3
 1631 0128 12FA84F2 		uxtah	r2, r2, r4
 1632 012c 0632     		adds	r2, r2, #6
 1633 012e 05EB4202 		add	r2, r5, r2, lsl #1
 1634 0132 A2F80034 		strh	r3, [r2, #1024]	@ movhi
 1635              	.L97:
 1636              	.LBB20:
1088:Drivers/STM32F3xx_HAL_Driver/Src/stm32f3xx_hal_pcd.c ****   } 
1089:Drivers/STM32F3xx_HAL_Driver/Src/stm32f3xx_hal_pcd.c ****   
1090:Drivers/STM32F3xx_HAL_Driver/Src/stm32f3xx_hal_pcd.c ****   PCD_SET_EP_RX_STATUS(hpcd->Instance, ep->num, USB_EP_RX_VALID)
 1637              		.loc 1 1090 0 is_stmt 1
 1638 0136 0268     		ldr	r2, [r0]
 1639 0138 C1EBC101 		rsb	r1, r1, r1, lsl #3
 1640              	.LVL157:
ARM GAS  /tmp/ccwKMGBI.s 			page 49


 1641 013c 8B00     		lsls	r3, r1, #2
 1642              	.LVL158:
 1643 013e 1844     		add	r0, r0, r3
 1644              	.LVL159:
 1645 0140 90F8CC11 		ldrb	r1, [r0, #460]	@ zero_extendqisi2
 1646 0144 32F82130 		ldrh	r3, [r2, r1, lsl #2]
 1647 0148 23F48043 		bic	r3, r3, #16384
 1648 014c 23F07003 		bic	r3, r3, #112
 1649              	.LVL160:
 1650 0150 83F44053 		eor	r3, r3, #12288
 1651              	.LVL161:
 1652 0154 43F40043 		orr	r3, r3, #32768
 1653              	.LVL162:
 1654 0158 43F08003 		orr	r3, r3, #128
 1655 015c 22F82130 		strh	r3, [r2, r1, lsl #2]	@ movhi
 1656              	.LVL163:
 1657              	.LBE20:
1091:Drivers/STM32F3xx_HAL_Driver/Src/stm32f3xx_hal_pcd.c **** 
1092:Drivers/STM32F3xx_HAL_Driver/Src/stm32f3xx_hal_pcd.c ****   return HAL_OK;
1093:Drivers/STM32F3xx_HAL_Driver/Src/stm32f3xx_hal_pcd.c **** }
 1658              		.loc 1 1093 0
 1659 0160 0020     		movs	r0, #0
 1660 0162 70BC     		pop	{r4, r5, r6}
 1661              	.LCFI14:
 1662              		.cfi_restore 6
 1663              		.cfi_restore 5
 1664              		.cfi_restore 4
 1665              		.cfi_def_cfa_offset 0
 1666 0164 7047     		bx	lr
 1667              		.cfi_endproc
 1668              	.LFE148:
 1670 0166 00BF     		.section	.text.HAL_PCD_EP_GetRxCount,"ax",%progbits
 1671              		.align	2
 1672              		.global	HAL_PCD_EP_GetRxCount
 1673              		.thumb
 1674              		.thumb_func
 1676              	HAL_PCD_EP_GetRxCount:
 1677              	.LFB149:
1094:Drivers/STM32F3xx_HAL_Driver/Src/stm32f3xx_hal_pcd.c **** 
1095:Drivers/STM32F3xx_HAL_Driver/Src/stm32f3xx_hal_pcd.c **** /**
1096:Drivers/STM32F3xx_HAL_Driver/Src/stm32f3xx_hal_pcd.c ****   * @brief  Get Received Data Size
1097:Drivers/STM32F3xx_HAL_Driver/Src/stm32f3xx_hal_pcd.c ****   * @param  hpcd PCD handle
1098:Drivers/STM32F3xx_HAL_Driver/Src/stm32f3xx_hal_pcd.c ****   * @param  ep_addr endpoint address
1099:Drivers/STM32F3xx_HAL_Driver/Src/stm32f3xx_hal_pcd.c ****   * @retval Data Size
1100:Drivers/STM32F3xx_HAL_Driver/Src/stm32f3xx_hal_pcd.c ****   */
1101:Drivers/STM32F3xx_HAL_Driver/Src/stm32f3xx_hal_pcd.c **** uint16_t HAL_PCD_EP_GetRxCount(PCD_HandleTypeDef *hpcd, uint8_t ep_addr)
1102:Drivers/STM32F3xx_HAL_Driver/Src/stm32f3xx_hal_pcd.c **** {
 1678              		.loc 1 1102 0
 1679              		.cfi_startproc
 1680              		@ args = 0, pretend = 0, frame = 0
 1681              		@ frame_needed = 0, uses_anonymous_args = 0
 1682              		@ link register save eliminated.
 1683              	.LVL164:
1103:Drivers/STM32F3xx_HAL_Driver/Src/stm32f3xx_hal_pcd.c ****   return hpcd->OUT_ep[ep_addr & 0x7F].xfer_count;
 1684              		.loc 1 1103 0
 1685 0000 01F07F01 		and	r1, r1, #127
 1686              	.LVL165:
ARM GAS  /tmp/ccwKMGBI.s 			page 50


 1687 0004 C1EBC101 		rsb	r1, r1, r1, lsl #3
 1688 0008 8B00     		lsls	r3, r1, #2
 1689 000a 1844     		add	r0, r0, r3
 1690              	.LVL166:
1104:Drivers/STM32F3xx_HAL_Driver/Src/stm32f3xx_hal_pcd.c **** }
 1691              		.loc 1 1104 0
 1692 000c B0F8E401 		ldrh	r0, [r0, #484]
 1693 0010 7047     		bx	lr
 1694              		.cfi_endproc
 1695              	.LFE149:
 1697 0012 00BF     		.section	.text.HAL_PCD_EP_Transmit,"ax",%progbits
 1698              		.align	2
 1699              		.global	HAL_PCD_EP_Transmit
 1700              		.thumb
 1701              		.thumb_func
 1703              	HAL_PCD_EP_Transmit:
 1704              	.LFB150:
1105:Drivers/STM32F3xx_HAL_Driver/Src/stm32f3xx_hal_pcd.c **** /**
1106:Drivers/STM32F3xx_HAL_Driver/Src/stm32f3xx_hal_pcd.c ****   * @brief  Send an amount of data  
1107:Drivers/STM32F3xx_HAL_Driver/Src/stm32f3xx_hal_pcd.c ****   * @param  hpcd PCD handle
1108:Drivers/STM32F3xx_HAL_Driver/Src/stm32f3xx_hal_pcd.c ****   * @param  ep_addr endpoint address
1109:Drivers/STM32F3xx_HAL_Driver/Src/stm32f3xx_hal_pcd.c ****   * @param  pBuf pointer to the transmission buffer   
1110:Drivers/STM32F3xx_HAL_Driver/Src/stm32f3xx_hal_pcd.c ****   * @param  len amount of data to be sent
1111:Drivers/STM32F3xx_HAL_Driver/Src/stm32f3xx_hal_pcd.c ****   * @retval HAL status
1112:Drivers/STM32F3xx_HAL_Driver/Src/stm32f3xx_hal_pcd.c ****   */
1113:Drivers/STM32F3xx_HAL_Driver/Src/stm32f3xx_hal_pcd.c **** HAL_StatusTypeDef HAL_PCD_EP_Transmit(PCD_HandleTypeDef *hpcd, uint8_t ep_addr, uint8_t *pBuf, uint
1114:Drivers/STM32F3xx_HAL_Driver/Src/stm32f3xx_hal_pcd.c **** {
 1705              		.loc 1 1114 0
 1706              		.cfi_startproc
 1707              		@ args = 0, pretend = 0, frame = 0
 1708              		@ frame_needed = 0, uses_anonymous_args = 0
 1709              	.LVL167:
 1710 0000 F8B5     		push	{r3, r4, r5, r6, r7, lr}
 1711              	.LCFI15:
 1712              		.cfi_def_cfa_offset 24
 1713              		.cfi_offset 3, -24
 1714              		.cfi_offset 4, -20
 1715              		.cfi_offset 5, -16
 1716              		.cfi_offset 6, -12
 1717              		.cfi_offset 7, -8
 1718              		.cfi_offset 14, -4
 1719 0002 0546     		mov	r5, r0
 1720              	.LVL168:
 1721 0004 01F07F04 		and	r4, r1, #127
 1722              	.LVL169:
1115:Drivers/STM32F3xx_HAL_Driver/Src/stm32f3xx_hal_pcd.c ****   PCD_EPTypeDef *ep;
1116:Drivers/STM32F3xx_HAL_Driver/Src/stm32f3xx_hal_pcd.c ****   uint16_t pmabuffer = 0U;
1117:Drivers/STM32F3xx_HAL_Driver/Src/stm32f3xx_hal_pcd.c ****     
1118:Drivers/STM32F3xx_HAL_Driver/Src/stm32f3xx_hal_pcd.c ****   ep = &hpcd->IN_ep[ep_addr & 0x7F];
1119:Drivers/STM32F3xx_HAL_Driver/Src/stm32f3xx_hal_pcd.c ****   
1120:Drivers/STM32F3xx_HAL_Driver/Src/stm32f3xx_hal_pcd.c ****   /*setup and start the Xfer */
1121:Drivers/STM32F3xx_HAL_Driver/Src/stm32f3xx_hal_pcd.c ****   ep->xfer_buff = pBuf;  
 1723              		.loc 1 1121 0
 1724 0008 E000     		lsls	r0, r4, #3
 1725              	.LVL170:
 1726 000a 001B     		subs	r0, r0, r4
 1727 000c 8100     		lsls	r1, r0, #2
ARM GAS  /tmp/ccwKMGBI.s 			page 51


 1728              	.LVL171:
 1729 000e 2944     		add	r1, r1, r5
 1730 0010 8A63     		str	r2, [r1, #56]
1122:Drivers/STM32F3xx_HAL_Driver/Src/stm32f3xx_hal_pcd.c ****   ep->xfer_len = len;
 1731              		.loc 1 1122 0
 1732 0012 CB63     		str	r3, [r1, #60]
1123:Drivers/STM32F3xx_HAL_Driver/Src/stm32f3xx_hal_pcd.c ****   ep->xfer_count = 0U;
 1733              		.loc 1 1123 0
 1734 0014 0022     		movs	r2, #0
 1735              	.LVL172:
 1736 0016 0A64     		str	r2, [r1, #64]
1124:Drivers/STM32F3xx_HAL_Driver/Src/stm32f3xx_hal_pcd.c ****   ep->is_in = 1U;
 1737              		.loc 1 1124 0
 1738 0018 0122     		movs	r2, #1
 1739 001a 81F82920 		strb	r2, [r1, #41]
1125:Drivers/STM32F3xx_HAL_Driver/Src/stm32f3xx_hal_pcd.c ****   ep->num = ep_addr & 0x7FU;
 1740              		.loc 1 1125 0
 1741 001e 81F82840 		strb	r4, [r1, #40]
1126:Drivers/STM32F3xx_HAL_Driver/Src/stm32f3xx_hal_pcd.c **** 
1127:Drivers/STM32F3xx_HAL_Driver/Src/stm32f3xx_hal_pcd.c ****   /*Multi packet transfer*/
1128:Drivers/STM32F3xx_HAL_Driver/Src/stm32f3xx_hal_pcd.c ****   if (ep->xfer_len > ep->maxpacket)
 1742              		.loc 1 1128 0
 1743 0022 4A6B     		ldr	r2, [r1, #52]
 1744 0024 9342     		cmp	r3, r2
 1745 0026 07D9     		bls	.L106
 1746              	.LVL173:
1129:Drivers/STM32F3xx_HAL_Driver/Src/stm32f3xx_hal_pcd.c ****   {
1130:Drivers/STM32F3xx_HAL_Driver/Src/stm32f3xx_hal_pcd.c ****     len=ep->maxpacket;
1131:Drivers/STM32F3xx_HAL_Driver/Src/stm32f3xx_hal_pcd.c ****     ep->xfer_len-=len; 
 1747              		.loc 1 1131 0
 1748 0028 C4EBC400 		rsb	r0, r4, r4, lsl #3
 1749 002c 8100     		lsls	r1, r0, #2
 1750              	.LVL174:
 1751 002e 2944     		add	r1, r1, r5
 1752 0030 9B1A     		subs	r3, r3, r2
 1753 0032 CB63     		str	r3, [r1, #60]
 1754              	.LVL175:
1130:Drivers/STM32F3xx_HAL_Driver/Src/stm32f3xx_hal_pcd.c ****     ep->xfer_len-=len; 
 1755              		.loc 1 1130 0
 1756 0034 1346     		mov	r3, r2
 1757 0036 05E0     		b	.L107
 1758              	.LVL176:
 1759              	.L106:
1132:Drivers/STM32F3xx_HAL_Driver/Src/stm32f3xx_hal_pcd.c ****   }
1133:Drivers/STM32F3xx_HAL_Driver/Src/stm32f3xx_hal_pcd.c ****   else
1134:Drivers/STM32F3xx_HAL_Driver/Src/stm32f3xx_hal_pcd.c ****   {  
1135:Drivers/STM32F3xx_HAL_Driver/Src/stm32f3xx_hal_pcd.c ****     len=ep->xfer_len;
1136:Drivers/STM32F3xx_HAL_Driver/Src/stm32f3xx_hal_pcd.c ****     ep->xfer_len =0U;
 1760              		.loc 1 1136 0
 1761 0038 C4EBC401 		rsb	r1, r4, r4, lsl #3
 1762              	.LVL177:
 1763 003c 8A00     		lsls	r2, r1, #2
 1764 003e 2A44     		add	r2, r2, r5
 1765 0040 0021     		movs	r1, #0
 1766 0042 D163     		str	r1, [r2, #60]
 1767              	.LVL178:
 1768              	.L107:
ARM GAS  /tmp/ccwKMGBI.s 			page 52


1137:Drivers/STM32F3xx_HAL_Driver/Src/stm32f3xx_hal_pcd.c ****   }
1138:Drivers/STM32F3xx_HAL_Driver/Src/stm32f3xx_hal_pcd.c ****   
1139:Drivers/STM32F3xx_HAL_Driver/Src/stm32f3xx_hal_pcd.c ****   /* configure and validate Tx endpoint */
1140:Drivers/STM32F3xx_HAL_Driver/Src/stm32f3xx_hal_pcd.c ****   if (ep->doublebuffer == 0U) 
 1769              		.loc 1 1140 0
 1770 0044 C4EBC401 		rsb	r1, r4, r4, lsl #3
 1771 0048 8A00     		lsls	r2, r1, #2
 1772 004a 2A44     		add	r2, r2, r5
 1773 004c 92F83220 		ldrb	r2, [r2, #50]	@ zero_extendqisi2
 1774 0050 C2B9     		cbnz	r2, .L108
1141:Drivers/STM32F3xx_HAL_Driver/Src/stm32f3xx_hal_pcd.c ****   {
1142:Drivers/STM32F3xx_HAL_Driver/Src/stm32f3xx_hal_pcd.c ****     PCD_WritePMA(hpcd->Instance, ep->xfer_buff, ep->pmaadress, len);
 1775              		.loc 1 1142 0
 1776 0052 9FB2     		uxth	r7, r3
 1777 0054 E300     		lsls	r3, r4, #3
 1778              	.LVL179:
 1779 0056 1B1B     		subs	r3, r3, r4
 1780 0058 9E00     		lsls	r6, r3, #2
 1781 005a 2E44     		add	r6, r6, r5
 1782 005c 3B46     		mov	r3, r7
 1783 005e B28D     		ldrh	r2, [r6, #44]
 1784 0060 B16B     		ldr	r1, [r6, #56]
 1785 0062 2868     		ldr	r0, [r5]
 1786 0064 FFF7FEFF 		bl	PCD_WritePMA
 1787              	.LVL180:
1143:Drivers/STM32F3xx_HAL_Driver/Src/stm32f3xx_hal_pcd.c ****     PCD_SET_EP_TX_CNT(hpcd->Instance, ep->num, len);
 1788              		.loc 1 1143 0
 1789 0068 2968     		ldr	r1, [r5]
 1790 006a B1F85020 		ldrh	r2, [r1, #80]
 1791 006e 96F82830 		ldrb	r3, [r6, #40]	@ zero_extendqisi2
 1792 0072 DB00     		lsls	r3, r3, #3
 1793 0074 13FA82F3 		uxtah	r3, r3, r2
 1794 0078 0233     		adds	r3, r3, #2
 1795 007a 01EB4303 		add	r3, r1, r3, lsl #1
 1796 007e A3F80074 		strh	r7, [r3, #1024]	@ movhi
 1797 0082 4BE0     		b	.L109
 1798              	.LVL181:
 1799              	.L108:
1144:Drivers/STM32F3xx_HAL_Driver/Src/stm32f3xx_hal_pcd.c ****   }
1145:Drivers/STM32F3xx_HAL_Driver/Src/stm32f3xx_hal_pcd.c ****   else
1146:Drivers/STM32F3xx_HAL_Driver/Src/stm32f3xx_hal_pcd.c ****   {
1147:Drivers/STM32F3xx_HAL_Driver/Src/stm32f3xx_hal_pcd.c ****     /*Write the data to the USB endpoint*/
1148:Drivers/STM32F3xx_HAL_Driver/Src/stm32f3xx_hal_pcd.c ****     if ((PCD_GET_ENDPOINT(hpcd->Instance, ep->num)& USB_EP_DTOG_TX) == USB_EP_DTOG_TX)
 1800              		.loc 1 1148 0
 1801 0084 2868     		ldr	r0, [r5]
 1802 0086 C4EBC401 		rsb	r1, r4, r4, lsl #3
 1803 008a 8A00     		lsls	r2, r1, #2
 1804 008c 2A44     		add	r2, r2, r5
 1805 008e 92F82820 		ldrb	r2, [r2, #40]	@ zero_extendqisi2
 1806 0092 30F82220 		ldrh	r2, [r0, r2, lsl #2]
 1807 0096 02F04002 		and	r2, r2, #64
 1808 009a 92B2     		uxth	r2, r2
 1809 009c 2AB1     		cbz	r2, .L110
1149:Drivers/STM32F3xx_HAL_Driver/Src/stm32f3xx_hal_pcd.c ****     {
1150:Drivers/STM32F3xx_HAL_Driver/Src/stm32f3xx_hal_pcd.c ****       pmabuffer = ep->pmaaddr1;
 1810              		.loc 1 1150 0
 1811 009e C4EBC401 		rsb	r1, r4, r4, lsl #3
ARM GAS  /tmp/ccwKMGBI.s 			page 53


 1812 00a2 8A00     		lsls	r2, r1, #2
 1813 00a4 2A44     		add	r2, r2, r5
 1814 00a6 128E     		ldrh	r2, [r2, #48]
 1815              	.LVL182:
 1816 00a8 04E0     		b	.L111
 1817              	.LVL183:
 1818              	.L110:
1151:Drivers/STM32F3xx_HAL_Driver/Src/stm32f3xx_hal_pcd.c ****     }
1152:Drivers/STM32F3xx_HAL_Driver/Src/stm32f3xx_hal_pcd.c ****     else
1153:Drivers/STM32F3xx_HAL_Driver/Src/stm32f3xx_hal_pcd.c ****     {
1154:Drivers/STM32F3xx_HAL_Driver/Src/stm32f3xx_hal_pcd.c ****       pmabuffer = ep->pmaaddr0;
 1819              		.loc 1 1154 0
 1820 00aa C4EBC401 		rsb	r1, r4, r4, lsl #3
 1821 00ae 8A00     		lsls	r2, r1, #2
 1822 00b0 2A44     		add	r2, r2, r5
 1823 00b2 D28D     		ldrh	r2, [r2, #46]
 1824              	.LVL184:
 1825              	.L111:
1155:Drivers/STM32F3xx_HAL_Driver/Src/stm32f3xx_hal_pcd.c ****     }
1156:Drivers/STM32F3xx_HAL_Driver/Src/stm32f3xx_hal_pcd.c ****     PCD_WritePMA(hpcd->Instance, ep->xfer_buff, pmabuffer, len);
 1826              		.loc 1 1156 0
 1827 00b4 E100     		lsls	r1, r4, #3
 1828 00b6 091B     		subs	r1, r1, r4
 1829 00b8 8E00     		lsls	r6, r1, #2
 1830 00ba 2E44     		add	r6, r6, r5
 1831 00bc 9BB2     		uxth	r3, r3
 1832              	.LVL185:
 1833 00be B16B     		ldr	r1, [r6, #56]
 1834 00c0 FFF7FEFF 		bl	PCD_WritePMA
 1835              	.LVL186:
1157:Drivers/STM32F3xx_HAL_Driver/Src/stm32f3xx_hal_pcd.c ****     PCD_FreeUserBuffer(hpcd->Instance, ep->num, ep->is_in)
 1836              		.loc 1 1157 0
 1837 00c4 96F82930 		ldrb	r3, [r6, #41]	@ zero_extendqisi2
 1838 00c8 9BB9     		cbnz	r3, .L112
 1839              		.loc 1 1157 0 is_stmt 0 discriminator 1
 1840 00ca 2A68     		ldr	r2, [r5]
 1841 00cc C4EBC401 		rsb	r1, r4, r4, lsl #3
 1842 00d0 8B00     		lsls	r3, r1, #2
 1843 00d2 2B44     		add	r3, r3, r5
 1844 00d4 93F82810 		ldrb	r1, [r3, #40]	@ zero_extendqisi2
 1845 00d8 32F82130 		ldrh	r3, [r2, r1, lsl #2]
 1846 00dc 23F0F003 		bic	r3, r3, #240
 1847 00e0 1B05     		lsls	r3, r3, #20
 1848 00e2 1B0D     		lsrs	r3, r3, #20
 1849 00e4 43F40043 		orr	r3, r3, #32768
 1850 00e8 43F0C003 		orr	r3, r3, #192
 1851 00ec 22F82130 		strh	r3, [r2, r1, lsl #2]	@ movhi
 1852 00f0 14E0     		b	.L109
 1853              	.L112:
 1854              		.loc 1 1157 0 discriminator 2
 1855 00f2 012B     		cmp	r3, #1
 1856 00f4 12D1     		bne	.L109
 1857              		.loc 1 1157 0 discriminator 3
 1858 00f6 2A68     		ldr	r2, [r5]
 1859 00f8 C4EBC401 		rsb	r1, r4, r4, lsl #3
 1860 00fc 8B00     		lsls	r3, r1, #2
 1861 00fe 2B44     		add	r3, r3, r5
ARM GAS  /tmp/ccwKMGBI.s 			page 54


 1862 0100 93F82810 		ldrb	r1, [r3, #40]	@ zero_extendqisi2
 1863 0104 32F82130 		ldrh	r3, [r2, r1, lsl #2]
 1864 0108 23F0F003 		bic	r3, r3, #240
 1865 010c 1B05     		lsls	r3, r3, #20
 1866 010e 1B0D     		lsrs	r3, r3, #20
 1867 0110 43F44043 		orr	r3, r3, #49152
 1868 0114 43F08003 		orr	r3, r3, #128
 1869 0118 22F82130 		strh	r3, [r2, r1, lsl #2]	@ movhi
 1870              	.L109:
 1871              	.LBB21:
1158:Drivers/STM32F3xx_HAL_Driver/Src/stm32f3xx_hal_pcd.c ****   }
1159:Drivers/STM32F3xx_HAL_Driver/Src/stm32f3xx_hal_pcd.c **** 
1160:Drivers/STM32F3xx_HAL_Driver/Src/stm32f3xx_hal_pcd.c ****   PCD_SET_EP_TX_STATUS(hpcd->Instance, ep->num, USB_EP_TX_VALID)
 1872              		.loc 1 1160 0 is_stmt 1
 1873 011c 2A68     		ldr	r2, [r5]
 1874 011e C4EBC404 		rsb	r4, r4, r4, lsl #3
 1875              	.LVL187:
 1876 0122 A300     		lsls	r3, r4, #2
 1877 0124 1D44     		add	r5, r5, r3
 1878              	.LVL188:
 1879 0126 95F82810 		ldrb	r1, [r5, #40]	@ zero_extendqisi2
 1880 012a 32F82130 		ldrh	r3, [r2, r1, lsl #2]
 1881 012e 23F4E043 		bic	r3, r3, #28672
 1882 0132 23F04003 		bic	r3, r3, #64
 1883              	.LVL189:
 1884 0136 83F03003 		eor	r3, r3, #48
 1885              	.LVL190:
 1886 013a 43F40043 		orr	r3, r3, #32768
 1887              	.LVL191:
 1888 013e 43F08003 		orr	r3, r3, #128
 1889 0142 22F82130 		strh	r3, [r2, r1, lsl #2]	@ movhi
 1890              	.LVL192:
 1891              	.LBE21:
1161:Drivers/STM32F3xx_HAL_Driver/Src/stm32f3xx_hal_pcd.c **** 
1162:Drivers/STM32F3xx_HAL_Driver/Src/stm32f3xx_hal_pcd.c ****   return HAL_OK;
1163:Drivers/STM32F3xx_HAL_Driver/Src/stm32f3xx_hal_pcd.c **** }
 1892              		.loc 1 1163 0
 1893 0146 0020     		movs	r0, #0
 1894 0148 F8BD     		pop	{r3, r4, r5, r6, r7, pc}
 1895              		.cfi_endproc
 1896              	.LFE150:
 1898 014a 00BF     		.section	.text.PCD_EP_ISR_Handler,"ax",%progbits
 1899              		.align	2
 1900              		.thumb
 1901              		.thumb_func
 1903              	PCD_EP_ISR_Handler:
 1904              	.LFB130:
 340:Drivers/STM32F3xx_HAL_Driver/Src/stm32f3xx_hal_pcd.c ****   PCD_EPTypeDef *ep;
 1905              		.loc 1 340 0
 1906              		.cfi_startproc
 1907              		@ args = 0, pretend = 0, frame = 8
 1908              		@ frame_needed = 0, uses_anonymous_args = 0
 1909              	.LVL193:
 1910 0000 70B5     		push	{r4, r5, r6, lr}
 1911              	.LCFI16:
 1912              		.cfi_def_cfa_offset 16
 1913              		.cfi_offset 4, -16
ARM GAS  /tmp/ccwKMGBI.s 			page 55


 1914              		.cfi_offset 5, -12
 1915              		.cfi_offset 6, -8
 1916              		.cfi_offset 14, -4
 1917 0002 82B0     		sub	sp, sp, #8
 1918              	.LCFI17:
 1919              		.cfi_def_cfa_offset 24
 1920 0004 0546     		mov	r5, r0
 1921              	.LVL194:
 345:Drivers/STM32F3xx_HAL_Driver/Src/stm32f3xx_hal_pcd.c ****   
 1922              		.loc 1 345 0
 1923 0006 0023     		movs	r3, #0
 1924 0008 ADF80430 		strh	r3, [sp, #4]	@ movhi
 348:Drivers/STM32F3xx_HAL_Driver/Src/stm32f3xx_hal_pcd.c ****   {
 1925              		.loc 1 348 0
 1926 000c 35E2     		b	.L115
 1927              	.LVL195:
 1928              	.L137:
 351:Drivers/STM32F3xx_HAL_Driver/Src/stm32f3xx_hal_pcd.c ****     
 1929              		.loc 1 351 0
 1930 000e BDF80640 		ldrh	r4, [sp, #6]
 1931              	.LVL196:
 353:Drivers/STM32F3xx_HAL_Driver/Src/stm32f3xx_hal_pcd.c ****     {
 1932              		.loc 1 353 0
 1933 0012 14F00F04 		ands	r4, r4, #15
 1934              	.LVL197:
 1935 0016 40F0C380 		bne	.L116
 358:Drivers/STM32F3xx_HAL_Driver/Src/stm32f3xx_hal_pcd.c ****       {
 1936              		.loc 1 358 0
 1937 001a BDF80630 		ldrh	r3, [sp, #6]
 1938 001e 03F01003 		and	r3, r3, #16
 1939 0022 9BB2     		uxth	r3, r3
 1940 0024 8BBB     		cbnz	r3, .L117
 364:Drivers/STM32F3xx_HAL_Driver/Src/stm32f3xx_hal_pcd.c ****         ep = &hpcd->IN_ep[0];
 1941              		.loc 1 364 0
 1942 0026 0388     		ldrh	r3, [r0]
 1943 0028 23F4E143 		bic	r3, r3, #28800
 1944 002c 23F07003 		bic	r3, r3, #112
 1945 0030 0380     		strh	r3, [r0]	@ movhi
 1946              	.LVL198:
 367:Drivers/STM32F3xx_HAL_Driver/Src/stm32f3xx_hal_pcd.c ****         ep->xfer_buff += ep->xfer_count;
 1947              		.loc 1 367 0
 1948 0032 2968     		ldr	r1, [r5]
 1949 0034 B1F85020 		ldrh	r2, [r1, #80]
 1950 0038 95F82830 		ldrb	r3, [r5, #40]	@ zero_extendqisi2
 1951 003c DB00     		lsls	r3, r3, #3
 1952 003e 13FA82F3 		uxtah	r3, r3, r2
 1953 0042 0233     		adds	r3, r3, #2
 1954 0044 01EB4303 		add	r3, r1, r3, lsl #1
 1955 0048 B3F80034 		ldrh	r3, [r3, #1024]
 1956 004c C3F30903 		ubfx	r3, r3, #0, #10
 1957 0050 2B64     		str	r3, [r5, #64]
 368:Drivers/STM32F3xx_HAL_Driver/Src/stm32f3xx_hal_pcd.c ****  
 1958              		.loc 1 368 0
 1959 0052 AA6B     		ldr	r2, [r5, #56]
 1960 0054 1344     		add	r3, r3, r2
 1961 0056 AB63     		str	r3, [r5, #56]
 371:Drivers/STM32F3xx_HAL_Driver/Src/stm32f3xx_hal_pcd.c ****         
ARM GAS  /tmp/ccwKMGBI.s 			page 56


 1962              		.loc 1 371 0
 1963 0058 0021     		movs	r1, #0
 1964 005a 2846     		mov	r0, r5
 1965 005c FFF7FEFF 		bl	HAL_PCD_DataInStageCallback
 1966              	.LVL199:
 374:Drivers/STM32F3xx_HAL_Driver/Src/stm32f3xx_hal_pcd.c ****         {
 1967              		.loc 1 374 0
 1968 0060 95F82430 		ldrb	r3, [r5, #36]	@ zero_extendqisi2
 1969 0064 13F0FF0F 		tst	r3, #255
 1970 0068 00F00782 		beq	.L115
 374:Drivers/STM32F3xx_HAL_Driver/Src/stm32f3xx_hal_pcd.c ****         {
 1971              		.loc 1 374 0 is_stmt 0 discriminator 1
 1972 006c EB6B     		ldr	r3, [r5, #60]
 1973 006e 002B     		cmp	r3, #0
 1974 0070 40F00382 		bne	.L115
 376:Drivers/STM32F3xx_HAL_Driver/Src/stm32f3xx_hal_pcd.c ****           hpcd->USB_Address = 0U;
 1975              		.loc 1 376 0 is_stmt 1
 1976 0074 2A68     		ldr	r2, [r5]
 1977 0076 95F82430 		ldrb	r3, [r5, #36]	@ zero_extendqisi2
 1978 007a 43F08003 		orr	r3, r3, #128
 1979 007e A2F84C30 		strh	r3, [r2, #76]	@ movhi
 377:Drivers/STM32F3xx_HAL_Driver/Src/stm32f3xx_hal_pcd.c ****         }
 1980              		.loc 1 377 0
 1981 0082 0023     		movs	r3, #0
 1982 0084 85F82430 		strb	r3, [r5, #36]
 1983 0088 F7E1     		b	.L115
 1984              	.LVL200:
 1985              	.L117:
 388:Drivers/STM32F3xx_HAL_Driver/Src/stm32f3xx_hal_pcd.c ****         
 1986              		.loc 1 388 0
 1987 008a 0388     		ldrh	r3, [r0]
 1988 008c 9BB2     		uxth	r3, r3
 1989 008e ADF80430 		strh	r3, [sp, #4]	@ movhi
 390:Drivers/STM32F3xx_HAL_Driver/Src/stm32f3xx_hal_pcd.c ****         {
 1990              		.loc 1 390 0
 1991 0092 BDF80430 		ldrh	r3, [sp, #4]
 1992 0096 03F40063 		and	r3, r3, #2048
 1993 009a 9BB2     		uxth	r3, r3
 1994 009c 03B3     		cbz	r3, .L119
 393:Drivers/STM32F3xx_HAL_Driver/Src/stm32f3xx_hal_pcd.c ****           PCD_ReadPMA(hpcd->Instance, (uint8_t*)(void*)hpcd->Setup ,ep->pmaadress , ep->xfer_count)
 1995              		.loc 1 393 0
 1996 009e B0F85020 		ldrh	r2, [r0, #80]
 1997 00a2 95F8CC31 		ldrb	r3, [r5, #460]	@ zero_extendqisi2
 1998 00a6 DB00     		lsls	r3, r3, #3
 1999 00a8 13FA82F3 		uxtah	r3, r3, r2
 2000 00ac 0633     		adds	r3, r3, #6
 2001 00ae 00EB4303 		add	r3, r0, r3, lsl #1
 2002 00b2 B3F80034 		ldrh	r3, [r3, #1024]
 2003 00b6 C3F30903 		ubfx	r3, r3, #0, #10
 2004 00ba C5F8E431 		str	r3, [r5, #484]
 394:Drivers/STM32F3xx_HAL_Driver/Src/stm32f3xx_hal_pcd.c ****           /* SETUP bit kept frozen while CTR_RX = 1U*/ 
 2005              		.loc 1 394 0
 2006 00be B5F8D021 		ldrh	r2, [r5, #464]
 2007 00c2 05F55D71 		add	r1, r5, #884
 2008 00c6 FFF7FEFF 		bl	PCD_ReadPMA
 2009              	.LVL201:
 396:Drivers/STM32F3xx_HAL_Driver/Src/stm32f3xx_hal_pcd.c ****           
ARM GAS  /tmp/ccwKMGBI.s 			page 57


 2010              		.loc 1 396 0
 2011 00ca 2A68     		ldr	r2, [r5]
 2012 00cc 1388     		ldrh	r3, [r2]
 2013 00ce 23F07003 		bic	r3, r3, #112
 2014 00d2 1B05     		lsls	r3, r3, #20
 2015 00d4 1B0D     		lsrs	r3, r3, #20
 2016 00d6 1380     		strh	r3, [r2]	@ movhi
 399:Drivers/STM32F3xx_HAL_Driver/Src/stm32f3xx_hal_pcd.c ****         }
 2017              		.loc 1 399 0
 2018 00d8 2846     		mov	r0, r5
 2019 00da FFF7FEFF 		bl	HAL_PCD_SetupStageCallback
 2020              	.LVL202:
 2021 00de CCE1     		b	.L115
 2022              	.L119:
 402:Drivers/STM32F3xx_HAL_Driver/Src/stm32f3xx_hal_pcd.c ****         {
 2023              		.loc 1 402 0
 2024 00e0 BDF80430 		ldrh	r3, [sp, #4]
 2025 00e4 13F4004F 		tst	r3, #32768
 2026 00e8 00F0C781 		beq	.L115
 404:Drivers/STM32F3xx_HAL_Driver/Src/stm32f3xx_hal_pcd.c ****           /* Get Control Data OUT Packet*/
 2027              		.loc 1 404 0
 2028 00ec 0388     		ldrh	r3, [r0]
 2029 00ee 23F07003 		bic	r3, r3, #112
 2030 00f2 1B05     		lsls	r3, r3, #20
 2031 00f4 1B0D     		lsrs	r3, r3, #20
 2032 00f6 0380     		strh	r3, [r0]	@ movhi
 406:Drivers/STM32F3xx_HAL_Driver/Src/stm32f3xx_hal_pcd.c ****           
 2033              		.loc 1 406 0
 2034 00f8 2868     		ldr	r0, [r5]
 2035 00fa B0F85020 		ldrh	r2, [r0, #80]
 2036 00fe 95F8CC31 		ldrb	r3, [r5, #460]	@ zero_extendqisi2
 2037 0102 DB00     		lsls	r3, r3, #3
 2038 0104 13FA82F3 		uxtah	r3, r3, r2
 2039 0108 0633     		adds	r3, r3, #6
 2040 010a 00EB4303 		add	r3, r0, r3, lsl #1
 2041 010e B3F80034 		ldrh	r3, [r3, #1024]
 2042 0112 C3F30903 		ubfx	r3, r3, #0, #10
 2043 0116 C5F8E431 		str	r3, [r5, #484]
 408:Drivers/STM32F3xx_HAL_Driver/Src/stm32f3xx_hal_pcd.c ****           {
 2044              		.loc 1 408 0
 2045 011a 63B1     		cbz	r3, .L120
 410:Drivers/STM32F3xx_HAL_Driver/Src/stm32f3xx_hal_pcd.c ****             ep->xfer_buff+=ep->xfer_count;
 2046              		.loc 1 410 0
 2047 011c B5F8D021 		ldrh	r2, [r5, #464]
 2048 0120 D5F8DC11 		ldr	r1, [r5, #476]
 2049 0124 FFF7FEFF 		bl	PCD_ReadPMA
 2050              	.LVL203:
 411:Drivers/STM32F3xx_HAL_Driver/Src/stm32f3xx_hal_pcd.c ****           }
 2051              		.loc 1 411 0
 2052 0128 D5F8DC21 		ldr	r2, [r5, #476]
 2053 012c D5F8E431 		ldr	r3, [r5, #484]
 2054 0130 1344     		add	r3, r3, r2
 2055 0132 C5F8DC31 		str	r3, [r5, #476]
 2056              	.L120:
 415:Drivers/STM32F3xx_HAL_Driver/Src/stm32f3xx_hal_pcd.c ****           
 2057              		.loc 1 415 0
 2058 0136 0021     		movs	r1, #0
ARM GAS  /tmp/ccwKMGBI.s 			page 58


 2059 0138 2846     		mov	r0, r5
 2060 013a FFF7FEFF 		bl	HAL_PCD_DataOutStageCallback
 2061              	.LVL204:
 2062              	.LBB22:
 417:Drivers/STM32F3xx_HAL_Driver/Src/stm32f3xx_hal_pcd.c ****           PCD_SET_EP_RX_STATUS(hpcd->Instance, PCD_ENDP0, USB_EP_RX_VALID)
 2063              		.loc 1 417 0
 2064 013e 2A68     		ldr	r2, [r5]
 2065 0140 B2F85030 		ldrh	r3, [r2, #80]
 2066 0144 9BB2     		uxth	r3, r3
 2067 0146 0633     		adds	r3, r3, #6
 2068 0148 02EB4303 		add	r3, r2, r3, lsl #1
 2069              	.LVL205:
 2070              	.LBB23:
 2071 014c D5F8D821 		ldr	r2, [r5, #472]
 2072 0150 3E2A     		cmp	r2, #62
 2073 0152 0DD9     		bls	.L121
 417:Drivers/STM32F3xx_HAL_Driver/Src/stm32f3xx_hal_pcd.c ****           PCD_SET_EP_RX_STATUS(hpcd->Instance, PCD_ENDP0, USB_EP_RX_VALID)
 2074              		.loc 1 417 0 is_stmt 0 discriminator 1
 2075 0154 C2F34F11 		ubfx	r1, r2, #5, #16
 2076              	.LVL206:
 2077 0158 12F01F0F 		tst	r2, #31
 2078 015c 01D1     		bne	.L122
 417:Drivers/STM32F3xx_HAL_Driver/Src/stm32f3xx_hal_pcd.c ****           PCD_SET_EP_RX_STATUS(hpcd->Instance, PCD_ENDP0, USB_EP_RX_VALID)
 2079              		.loc 1 417 0 discriminator 3
 2080 015e 0139     		subs	r1, r1, #1
 2081              	.LVL207:
 2082 0160 89B2     		uxth	r1, r1
 2083              	.LVL208:
 2084              	.L122:
 417:Drivers/STM32F3xx_HAL_Driver/Src/stm32f3xx_hal_pcd.c ****           PCD_SET_EP_RX_STATUS(hpcd->Instance, PCD_ENDP0, USB_EP_RX_VALID)
 2085              		.loc 1 417 0 discriminator 5
 2086 0162 6FEAC161 		mvn	r1, r1, lsl #27
 2087              	.LVL209:
 2088 0166 6FEA5141 		mvn	r1, r1, lsr #17
 2089 016a A3F80014 		strh	r1, [r3, #1024]	@ movhi
 2090 016e 09E0     		b	.L123
 2091              	.L121:
 417:Drivers/STM32F3xx_HAL_Driver/Src/stm32f3xx_hal_pcd.c ****           PCD_SET_EP_RX_STATUS(hpcd->Instance, PCD_ENDP0, USB_EP_RX_VALID)
 2092              		.loc 1 417 0 discriminator 2
 2093 0170 C2F34F01 		ubfx	r1, r2, #1, #16
 2094              	.LVL210:
 2095 0174 12F0010F 		tst	r2, #1
 2096 0178 01D0     		beq	.L124
 417:Drivers/STM32F3xx_HAL_Driver/Src/stm32f3xx_hal_pcd.c ****           PCD_SET_EP_RX_STATUS(hpcd->Instance, PCD_ENDP0, USB_EP_RX_VALID)
 2097              		.loc 1 417 0 discriminator 6
 2098 017a 0131     		adds	r1, r1, #1
 2099              	.LVL211:
 2100 017c 89B2     		uxth	r1, r1
 2101              	.LVL212:
 2102              	.L124:
 417:Drivers/STM32F3xx_HAL_Driver/Src/stm32f3xx_hal_pcd.c ****           PCD_SET_EP_RX_STATUS(hpcd->Instance, PCD_ENDP0, USB_EP_RX_VALID)
 2103              		.loc 1 417 0 discriminator 8
 2104 017e 8902     		lsls	r1, r1, #10
 2105              	.LVL213:
 2106 0180 A3F80014 		strh	r1, [r3, #1024]	@ movhi
 2107              	.L123:
 2108              	.LBE23:
ARM GAS  /tmp/ccwKMGBI.s 			page 59


 2109              	.LBE22:
 2110              	.LBB24:
 418:Drivers/STM32F3xx_HAL_Driver/Src/stm32f3xx_hal_pcd.c ****         }
 2111              		.loc 1 418 0 is_stmt 1
 2112 0184 2A68     		ldr	r2, [r5]
 2113 0186 1388     		ldrh	r3, [r2]
 2114              	.LVL214:
 2115 0188 23F48043 		bic	r3, r3, #16384
 2116 018c 23F07003 		bic	r3, r3, #112
 2117              	.LVL215:
 2118 0190 83F44053 		eor	r3, r3, #12288
 2119              	.LVL216:
 2120 0194 43F40043 		orr	r3, r3, #32768
 2121              	.LVL217:
 2122 0198 43F08003 		orr	r3, r3, #128
 2123 019c 1380     		strh	r3, [r2]	@ movhi
 2124              	.LVL218:
 2125 019e 6CE1     		b	.L115
 2126              	.LVL219:
 2127              	.L116:
 2128              	.LBE24:
 428:Drivers/STM32F3xx_HAL_Driver/Src/stm32f3xx_hal_pcd.c ****       if ((wEPVal & USB_EP_CTR_RX) != 0U)
 2129              		.loc 1 428 0
 2130 01a0 30F82430 		ldrh	r3, [r0, r4, lsl #2]
 2131 01a4 ADF80430 		strh	r3, [sp, #4]	@ movhi
 429:Drivers/STM32F3xx_HAL_Driver/Src/stm32f3xx_hal_pcd.c ****       {  
 2132              		.loc 1 429 0
 2133 01a8 BDF80420 		ldrh	r2, [sp, #4]
 2134 01ac 12F4004F 		tst	r2, #32768
 2135 01b0 00F0AB80 		beq	.L125
 432:Drivers/STM32F3xx_HAL_Driver/Src/stm32f3xx_hal_pcd.c ****         ep = &hpcd->OUT_ep[EPindex];
 2136              		.loc 1 432 0
 2137 01b4 23F07003 		bic	r3, r3, #112
 2138 01b8 1B05     		lsls	r3, r3, #20
 2139 01ba 1B0D     		lsrs	r3, r3, #20
 2140 01bc 20F82430 		strh	r3, [r0, r4, lsl #2]	@ movhi
 2141              	.LVL220:
 436:Drivers/STM32F3xx_HAL_Driver/Src/stm32f3xx_hal_pcd.c ****         {
 2142              		.loc 1 436 0
 2143 01c0 C4EBC402 		rsb	r2, r4, r4, lsl #3
 2144 01c4 9300     		lsls	r3, r2, #2
 2145 01c6 2B44     		add	r3, r3, r5
 2146 01c8 93F8D631 		ldrb	r3, [r3, #470]	@ zero_extendqisi2
 2147 01cc 03BB     		cbnz	r3, .L126
 438:Drivers/STM32F3xx_HAL_Driver/Src/stm32f3xx_hal_pcd.c ****           if (count != 0U)
 2148              		.loc 1 438 0
 2149 01ce 2868     		ldr	r0, [r5]
 2150 01d0 B0F85020 		ldrh	r2, [r0, #80]
 2151 01d4 C4EBC401 		rsb	r1, r4, r4, lsl #3
 2152 01d8 8B00     		lsls	r3, r1, #2
 2153 01da 2B44     		add	r3, r3, r5
 2154 01dc 93F8CC31 		ldrb	r3, [r3, #460]	@ zero_extendqisi2
 2155 01e0 DB00     		lsls	r3, r3, #3
 2156 01e2 13FA82F3 		uxtah	r3, r3, r2
 2157 01e6 0633     		adds	r3, r3, #6
 2158 01e8 00EB4303 		add	r3, r0, r3, lsl #1
 2159 01ec B3F80064 		ldrh	r6, [r3, #1024]
ARM GAS  /tmp/ccwKMGBI.s 			page 60


 2160 01f0 C6F30906 		ubfx	r6, r6, #0, #10
 2161              	.LVL221:
 439:Drivers/STM32F3xx_HAL_Driver/Src/stm32f3xx_hal_pcd.c ****           {
 2162              		.loc 1 439 0
 2163 01f4 002E     		cmp	r6, #0
 2164 01f6 5CD0     		beq	.L127
 441:Drivers/STM32F3xx_HAL_Driver/Src/stm32f3xx_hal_pcd.c ****           }
 2165              		.loc 1 441 0
 2166 01f8 E300     		lsls	r3, r4, #3
 2167 01fa 1B1B     		subs	r3, r3, r4
 2168 01fc 9900     		lsls	r1, r3, #2
 2169 01fe 2944     		add	r1, r1, r5
 2170 0200 3346     		mov	r3, r6
 2171 0202 B1F8D021 		ldrh	r2, [r1, #464]
 2172 0206 D1F8DC11 		ldr	r1, [r1, #476]
 2173 020a FFF7FEFF 		bl	PCD_ReadPMA
 2174              	.LVL222:
 2175 020e 50E0     		b	.L127
 2176              	.LVL223:
 2177              	.L126:
 446:Drivers/STM32F3xx_HAL_Driver/Src/stm32f3xx_hal_pcd.c ****           {
 2178              		.loc 1 446 0
 2179 0210 2868     		ldr	r0, [r5]
 2180 0212 C4EBC402 		rsb	r2, r4, r4, lsl #3
 2181 0216 9300     		lsls	r3, r2, #2
 2182 0218 2B44     		add	r3, r3, r5
 2183 021a 93F8CC21 		ldrb	r2, [r3, #460]	@ zero_extendqisi2
 2184 021e 30F82230 		ldrh	r3, [r0, r2, lsl #2]
 2185 0222 03F48043 		and	r3, r3, #16384
 2186 0226 9BB2     		uxth	r3, r3
 2187 0228 C3B1     		cbz	r3, .L128
 449:Drivers/STM32F3xx_HAL_Driver/Src/stm32f3xx_hal_pcd.c ****             if (count != 0U)
 2188              		.loc 1 449 0
 2189 022a B0F85030 		ldrh	r3, [r0, #80]
 2190 022e D200     		lsls	r2, r2, #3
 2191 0230 12FA83F2 		uxtah	r2, r2, r3
 2192 0234 931C     		adds	r3, r2, #2
 2193 0236 00EB4303 		add	r3, r0, r3, lsl #1
 2194 023a B3F80064 		ldrh	r6, [r3, #1024]
 2195 023e C6F30906 		ubfx	r6, r6, #0, #10
 2196              	.LVL224:
 450:Drivers/STM32F3xx_HAL_Driver/Src/stm32f3xx_hal_pcd.c ****             {
 2197              		.loc 1 450 0
 2198 0242 1EB3     		cbz	r6, .L129
 452:Drivers/STM32F3xx_HAL_Driver/Src/stm32f3xx_hal_pcd.c ****             }
 2199              		.loc 1 452 0
 2200 0244 E300     		lsls	r3, r4, #3
 2201 0246 1B1B     		subs	r3, r3, r4
 2202 0248 9900     		lsls	r1, r3, #2
 2203 024a 2944     		add	r1, r1, r5
 2204 024c 3346     		mov	r3, r6
 2205 024e B1F8D221 		ldrh	r2, [r1, #466]
 2206 0252 D1F8DC11 		ldr	r1, [r1, #476]
 2207 0256 FFF7FEFF 		bl	PCD_ReadPMA
 2208              	.LVL225:
 2209 025a 17E0     		b	.L129
 2210              	.LVL226:
ARM GAS  /tmp/ccwKMGBI.s 			page 61


 2211              	.L128:
 458:Drivers/STM32F3xx_HAL_Driver/Src/stm32f3xx_hal_pcd.c ****             if (count != 0U)
 2212              		.loc 1 458 0
 2213 025c B0F85030 		ldrh	r3, [r0, #80]
 2214 0260 D200     		lsls	r2, r2, #3
 2215 0262 12FA83F2 		uxtah	r2, r2, r3
 2216 0266 931D     		adds	r3, r2, #6
 2217 0268 00EB4303 		add	r3, r0, r3, lsl #1
 2218 026c B3F80064 		ldrh	r6, [r3, #1024]
 2219 0270 C6F30906 		ubfx	r6, r6, #0, #10
 2220              	.LVL227:
 459:Drivers/STM32F3xx_HAL_Driver/Src/stm32f3xx_hal_pcd.c ****             {
 2221              		.loc 1 459 0
 2222 0274 56B1     		cbz	r6, .L129
 461:Drivers/STM32F3xx_HAL_Driver/Src/stm32f3xx_hal_pcd.c ****             }
 2223              		.loc 1 461 0
 2224 0276 E300     		lsls	r3, r4, #3
 2225 0278 1B1B     		subs	r3, r3, r4
 2226 027a 9900     		lsls	r1, r3, #2
 2227 027c 2944     		add	r1, r1, r5
 2228 027e 3346     		mov	r3, r6
 2229 0280 B1F8D421 		ldrh	r2, [r1, #468]
 2230 0284 D1F8DC11 		ldr	r1, [r1, #476]
 2231 0288 FFF7FEFF 		bl	PCD_ReadPMA
 2232              	.LVL228:
 2233              	.L129:
 464:Drivers/STM32F3xx_HAL_Driver/Src/stm32f3xx_hal_pcd.c ****         }
 2234              		.loc 1 464 0 discriminator 1
 2235 028c 2A68     		ldr	r2, [r5]
 2236 028e C4EBC401 		rsb	r1, r4, r4, lsl #3
 2237 0292 8B00     		lsls	r3, r1, #2
 2238 0294 2B44     		add	r3, r3, r5
 2239 0296 93F8CC11 		ldrb	r1, [r3, #460]	@ zero_extendqisi2
 2240 029a 32F82130 		ldrh	r3, [r2, r1, lsl #2]
 2241 029e 23F0F003 		bic	r3, r3, #240
 2242 02a2 1B05     		lsls	r3, r3, #20
 2243 02a4 1B0D     		lsrs	r3, r3, #20
 2244 02a6 43F40043 		orr	r3, r3, #32768
 2245 02aa 43F0C003 		orr	r3, r3, #192
 2246 02ae 22F82130 		strh	r3, [r2, r1, lsl #2]	@ movhi
 2247              	.L127:
 467:Drivers/STM32F3xx_HAL_Driver/Src/stm32f3xx_hal_pcd.c ****         ep->xfer_buff+=count;
 2248              		.loc 1 467 0
 2249 02b2 E200     		lsls	r2, r4, #3
 2250 02b4 121B     		subs	r2, r2, r4
 2251 02b6 9300     		lsls	r3, r2, #2
 2252 02b8 2B44     		add	r3, r3, r5
 2253 02ba D3F8E421 		ldr	r2, [r3, #484]
 2254 02be 3244     		add	r2, r2, r6
 2255 02c0 C3F8E421 		str	r2, [r3, #484]
 468:Drivers/STM32F3xx_HAL_Driver/Src/stm32f3xx_hal_pcd.c ****        
 2256              		.loc 1 468 0
 2257 02c4 D3F8DC21 		ldr	r2, [r3, #476]
 2258 02c8 3244     		add	r2, r2, r6
 2259 02ca C3F8DC21 		str	r2, [r3, #476]
 470:Drivers/STM32F3xx_HAL_Driver/Src/stm32f3xx_hal_pcd.c ****         {
 2260              		.loc 1 470 0
ARM GAS  /tmp/ccwKMGBI.s 			page 62


 2261 02ce D3F8E031 		ldr	r3, [r3, #480]
 2262 02d2 3BB1     		cbz	r3, .L130
 470:Drivers/STM32F3xx_HAL_Driver/Src/stm32f3xx_hal_pcd.c ****         {
 2263              		.loc 1 470 0 is_stmt 0 discriminator 1
 2264 02d4 C4EBC400 		rsb	r0, r4, r4, lsl #3
 2265 02d8 8100     		lsls	r1, r0, #2
 2266 02da 2944     		add	r1, r1, r5
 2267 02dc D1F8D811 		ldr	r1, [r1, #472]
 2268 02e0 8E42     		cmp	r6, r1
 2269 02e2 09D2     		bcs	.L131
 2270              	.L130:
 473:Drivers/STM32F3xx_HAL_Driver/Src/stm32f3xx_hal_pcd.c ****         }
 2271              		.loc 1 473 0 is_stmt 1
 2272 02e4 C4EBC402 		rsb	r2, r4, r4, lsl #3
 2273 02e8 9300     		lsls	r3, r2, #2
 2274 02ea 2B44     		add	r3, r3, r5
 2275 02ec 93F8CC11 		ldrb	r1, [r3, #460]	@ zero_extendqisi2
 2276 02f0 2846     		mov	r0, r5
 2277 02f2 FFF7FEFF 		bl	HAL_PCD_DataOutStageCallback
 2278              	.LVL229:
 2279 02f6 08E0     		b	.L125
 2280              	.L131:
 477:Drivers/STM32F3xx_HAL_Driver/Src/stm32f3xx_hal_pcd.c ****         }
 2281              		.loc 1 477 0
 2282 02f8 C4EBC400 		rsb	r0, r4, r4, lsl #3
 2283 02fc 8100     		lsls	r1, r0, #2
 2284 02fe 2944     		add	r1, r1, r5
 2285 0300 91F8CC11 		ldrb	r1, [r1, #460]	@ zero_extendqisi2
 2286 0304 2846     		mov	r0, r5
 2287 0306 FFF7FEFF 		bl	HAL_PCD_EP_Receive
 2288              	.LVL230:
 2289              	.L125:
 482:Drivers/STM32F3xx_HAL_Driver/Src/stm32f3xx_hal_pcd.c ****       {
 2290              		.loc 1 482 0
 2291 030a BDF80430 		ldrh	r3, [sp, #4]
 2292 030e 03F08003 		and	r3, r3, #128
 2293 0312 9BB2     		uxth	r3, r3
 2294 0314 002B     		cmp	r3, #0
 2295 0316 00F0B080 		beq	.L115
 2296              	.LVL231:
 487:Drivers/STM32F3xx_HAL_Driver/Src/stm32f3xx_hal_pcd.c ****         
 2297              		.loc 1 487 0
 2298 031a 2A68     		ldr	r2, [r5]
 2299 031c 32F82430 		ldrh	r3, [r2, r4, lsl #2]
 2300 0320 23F4E143 		bic	r3, r3, #28800
 2301 0324 23F07003 		bic	r3, r3, #112
 2302 0328 22F82430 		strh	r3, [r2, r4, lsl #2]	@ movhi
 490:Drivers/STM32F3xx_HAL_Driver/Src/stm32f3xx_hal_pcd.c ****         {
 2303              		.loc 1 490 0
 2304 032c C4EBC402 		rsb	r2, r4, r4, lsl #3
 2305 0330 9300     		lsls	r3, r2, #2
 2306 0332 2B44     		add	r3, r3, r5
 2307 0334 93F83230 		ldrb	r3, [r3, #50]	@ zero_extendqisi2
 2308 0338 F3B9     		cbnz	r3, .L132
 492:Drivers/STM32F3xx_HAL_Driver/Src/stm32f3xx_hal_pcd.c ****           if (ep->xfer_count != 0U)
 2309              		.loc 1 492 0
 2310 033a 2868     		ldr	r0, [r5]
ARM GAS  /tmp/ccwKMGBI.s 			page 63


 2311 033c B0F85020 		ldrh	r2, [r0, #80]
 2312 0340 E300     		lsls	r3, r4, #3
 2313 0342 1B1B     		subs	r3, r3, r4
 2314 0344 9900     		lsls	r1, r3, #2
 2315 0346 2944     		add	r1, r1, r5
 2316 0348 91F82830 		ldrb	r3, [r1, #40]	@ zero_extendqisi2
 2317 034c DB00     		lsls	r3, r3, #3
 2318 034e 13FA82F3 		uxtah	r3, r3, r2
 2319 0352 0233     		adds	r3, r3, #2
 2320 0354 00EB4303 		add	r3, r0, r3, lsl #1
 2321 0358 B3F80034 		ldrh	r3, [r3, #1024]
 2322 035c C3F30903 		ubfx	r3, r3, #0, #10
 2323 0360 0B64     		str	r3, [r1, #64]
 493:Drivers/STM32F3xx_HAL_Driver/Src/stm32f3xx_hal_pcd.c ****           {
 2324              		.loc 1 493 0
 2325 0362 002B     		cmp	r3, #0
 2326 0364 5DD0     		beq	.L133
 495:Drivers/STM32F3xx_HAL_Driver/Src/stm32f3xx_hal_pcd.c ****           }
 2327              		.loc 1 495 0
 2328 0366 E200     		lsls	r2, r4, #3
 2329 0368 121B     		subs	r2, r2, r4
 2330 036a 9100     		lsls	r1, r2, #2
 2331 036c 2944     		add	r1, r1, r5
 2332 036e 8A8D     		ldrh	r2, [r1, #44]
 2333 0370 896B     		ldr	r1, [r1, #56]
 2334 0372 FFF7FEFF 		bl	PCD_WritePMA
 2335              	.LVL232:
 2336 0376 54E0     		b	.L133
 2337              	.L132:
 500:Drivers/STM32F3xx_HAL_Driver/Src/stm32f3xx_hal_pcd.c ****           {
 2338              		.loc 1 500 0
 2339 0378 2868     		ldr	r0, [r5]
 2340 037a C4EBC402 		rsb	r2, r4, r4, lsl #3
 2341 037e 9300     		lsls	r3, r2, #2
 2342 0380 2B44     		add	r3, r3, r5
 2343 0382 93F82820 		ldrb	r2, [r3, #40]	@ zero_extendqisi2
 2344 0386 30F82230 		ldrh	r3, [r0, r2, lsl #2]
 2345 038a 03F04003 		and	r3, r3, #64
 2346 038e 9BB2     		uxth	r3, r3
 2347 0390 D3B1     		cbz	r3, .L134
 503:Drivers/STM32F3xx_HAL_Driver/Src/stm32f3xx_hal_pcd.c ****             if (ep->xfer_count != 0U)
 2348              		.loc 1 503 0
 2349 0392 B0F85030 		ldrh	r3, [r0, #80]
 2350 0396 D200     		lsls	r2, r2, #3
 2351 0398 12FA83F2 		uxtah	r2, r2, r3
 2352 039c 931C     		adds	r3, r2, #2
 2353 039e 00EB4303 		add	r3, r0, r3, lsl #1
 2354 03a2 B3F80034 		ldrh	r3, [r3, #1024]
 2355 03a6 C3F30903 		ubfx	r3, r3, #0, #10
 2356 03aa C4EBC401 		rsb	r1, r4, r4, lsl #3
 2357 03ae 8A00     		lsls	r2, r1, #2
 2358 03b0 2A44     		add	r2, r2, r5
 2359 03b2 1364     		str	r3, [r2, #64]
 504:Drivers/STM32F3xx_HAL_Driver/Src/stm32f3xx_hal_pcd.c ****             {
 2360              		.loc 1 504 0
 2361 03b4 13B3     		cbz	r3, .L135
 506:Drivers/STM32F3xx_HAL_Driver/Src/stm32f3xx_hal_pcd.c ****             }
ARM GAS  /tmp/ccwKMGBI.s 			page 64


 2362              		.loc 1 506 0
 2363 03b6 E200     		lsls	r2, r4, #3
 2364 03b8 121B     		subs	r2, r2, r4
 2365 03ba 9100     		lsls	r1, r2, #2
 2366 03bc 2944     		add	r1, r1, r5
 2367 03be CA8D     		ldrh	r2, [r1, #46]
 2368 03c0 896B     		ldr	r1, [r1, #56]
 2369 03c2 FFF7FEFF 		bl	PCD_WritePMA
 2370              	.LVL233:
 2371 03c6 19E0     		b	.L135
 2372              	.L134:
 512:Drivers/STM32F3xx_HAL_Driver/Src/stm32f3xx_hal_pcd.c ****             if (ep->xfer_count != 0U)
 2373              		.loc 1 512 0
 2374 03c8 B0F85030 		ldrh	r3, [r0, #80]
 2375 03cc D200     		lsls	r2, r2, #3
 2376 03ce 12FA83F2 		uxtah	r2, r2, r3
 2377 03d2 931D     		adds	r3, r2, #6
 2378 03d4 00EB4303 		add	r3, r0, r3, lsl #1
 2379 03d8 B3F80034 		ldrh	r3, [r3, #1024]
 2380 03dc C3F30903 		ubfx	r3, r3, #0, #10
 2381 03e0 C4EBC401 		rsb	r1, r4, r4, lsl #3
 2382 03e4 8A00     		lsls	r2, r1, #2
 2383 03e6 2A44     		add	r2, r2, r5
 2384 03e8 1364     		str	r3, [r2, #64]
 513:Drivers/STM32F3xx_HAL_Driver/Src/stm32f3xx_hal_pcd.c ****             {
 2385              		.loc 1 513 0
 2386 03ea 3BB1     		cbz	r3, .L135
 515:Drivers/STM32F3xx_HAL_Driver/Src/stm32f3xx_hal_pcd.c ****             }
 2387              		.loc 1 515 0
 2388 03ec E200     		lsls	r2, r4, #3
 2389 03ee 121B     		subs	r2, r2, r4
 2390 03f0 9100     		lsls	r1, r2, #2
 2391 03f2 2944     		add	r1, r1, r5
 2392 03f4 0A8E     		ldrh	r2, [r1, #48]
 2393 03f6 896B     		ldr	r1, [r1, #56]
 2394 03f8 FFF7FEFF 		bl	PCD_WritePMA
 2395              	.LVL234:
 2396              	.L135:
 518:Drivers/STM32F3xx_HAL_Driver/Src/stm32f3xx_hal_pcd.c ****         }
 2397              		.loc 1 518 0 discriminator 3
 2398 03fc 2A68     		ldr	r2, [r5]
 2399 03fe C4EBC401 		rsb	r1, r4, r4, lsl #3
 2400 0402 8B00     		lsls	r3, r1, #2
 2401 0404 2B44     		add	r3, r3, r5
 2402 0406 93F82810 		ldrb	r1, [r3, #40]	@ zero_extendqisi2
 2403 040a 32F82130 		ldrh	r3, [r2, r1, lsl #2]
 2404 040e 23F0F003 		bic	r3, r3, #240
 2405 0412 1B05     		lsls	r3, r3, #20
 2406 0414 1B0D     		lsrs	r3, r3, #20
 2407 0416 43F44043 		orr	r3, r3, #49152
 2408 041a 43F08003 		orr	r3, r3, #128
 2409 041e 22F82130 		strh	r3, [r2, r1, lsl #2]	@ movhi
 2410              	.L133:
 521:Drivers/STM32F3xx_HAL_Driver/Src/stm32f3xx_hal_pcd.c ****         ep->xfer_buff+=ep->xfer_count;
 2411              		.loc 1 521 0
 2412 0422 2868     		ldr	r0, [r5]
 2413 0424 B0F85010 		ldrh	r1, [r0, #80]
ARM GAS  /tmp/ccwKMGBI.s 			page 65


 2414 0428 E200     		lsls	r2, r4, #3
 2415 042a 121B     		subs	r2, r2, r4
 2416 042c 9300     		lsls	r3, r2, #2
 2417 042e 2B44     		add	r3, r3, r5
 2418 0430 93F82820 		ldrb	r2, [r3, #40]	@ zero_extendqisi2
 2419 0434 D200     		lsls	r2, r2, #3
 2420 0436 12FA81F2 		uxtah	r2, r2, r1
 2421 043a 0232     		adds	r2, r2, #2
 2422 043c 00EB4202 		add	r2, r0, r2, lsl #1
 2423 0440 B2F80024 		ldrh	r2, [r2, #1024]
 2424 0444 C2F30902 		ubfx	r2, r2, #0, #10
 2425 0448 1A64     		str	r2, [r3, #64]
 522:Drivers/STM32F3xx_HAL_Driver/Src/stm32f3xx_hal_pcd.c ****        
 2426              		.loc 1 522 0
 2427 044a 996B     		ldr	r1, [r3, #56]
 2428 044c 0A44     		add	r2, r2, r1
 2429 044e 9A63     		str	r2, [r3, #56]
 525:Drivers/STM32F3xx_HAL_Driver/Src/stm32f3xx_hal_pcd.c ****         {
 2430              		.loc 1 525 0
 2431 0450 DB6B     		ldr	r3, [r3, #60]
 2432 0452 4BB9     		cbnz	r3, .L136
 528:Drivers/STM32F3xx_HAL_Driver/Src/stm32f3xx_hal_pcd.c ****         }
 2433              		.loc 1 528 0
 2434 0454 C4EBC404 		rsb	r4, r4, r4, lsl #3
 2435              	.LVL235:
 2436 0458 A300     		lsls	r3, r4, #2
 2437 045a 2B44     		add	r3, r3, r5
 2438 045c 93F82810 		ldrb	r1, [r3, #40]	@ zero_extendqisi2
 2439 0460 2846     		mov	r0, r5
 2440 0462 FFF7FEFF 		bl	HAL_PCD_DataInStageCallback
 2441              	.LVL236:
 2442 0466 08E0     		b	.L115
 2443              	.LVL237:
 2444              	.L136:
 532:Drivers/STM32F3xx_HAL_Driver/Src/stm32f3xx_hal_pcd.c ****         }
 2445              		.loc 1 532 0
 2446 0468 C4EBC404 		rsb	r4, r4, r4, lsl #3
 2447              	.LVL238:
 2448 046c A100     		lsls	r1, r4, #2
 2449 046e 2944     		add	r1, r1, r5
 2450 0470 91F82810 		ldrb	r1, [r1, #40]	@ zero_extendqisi2
 2451 0474 2846     		mov	r0, r5
 2452 0476 FFF7FEFF 		bl	HAL_PCD_EP_Transmit
 2453              	.LVL239:
 2454              	.L115:
 348:Drivers/STM32F3xx_HAL_Driver/Src/stm32f3xx_hal_pcd.c ****   {
 2455              		.loc 1 348 0
 2456 047a 2868     		ldr	r0, [r5]
 2457 047c B0F84430 		ldrh	r3, [r0, #68]
 2458 0480 9BB2     		uxth	r3, r3
 2459 0482 ADF80630 		strh	r3, [sp, #6]	@ movhi
 2460 0486 13F4004F 		tst	r3, #32768
 2461 048a 7FF4C0AD 		bne	.L137
 538:Drivers/STM32F3xx_HAL_Driver/Src/stm32f3xx_hal_pcd.c **** /**
 2462              		.loc 1 538 0
 2463 048e 0020     		movs	r0, #0
 2464 0490 02B0     		add	sp, sp, #8
ARM GAS  /tmp/ccwKMGBI.s 			page 66


 2465              	.LCFI18:
 2466              		.cfi_def_cfa_offset 16
 2467              		@ sp needed
 2468 0492 70BD     		pop	{r4, r5, r6, pc}
 2469              		.cfi_endproc
 2470              	.LFE130:
 2472              		.section	.text.HAL_PCD_IRQHandler,"ax",%progbits
 2473              		.align	2
 2474              		.global	HAL_PCD_IRQHandler
 2475              		.thumb
 2476              		.thumb_func
 2478              	HAL_PCD_IRQHandler:
 2479              	.LFB131:
 557:Drivers/STM32F3xx_HAL_Driver/Src/stm32f3xx_hal_pcd.c ****   
 2480              		.loc 1 557 0
 2481              		.cfi_startproc
 2482              		@ args = 0, pretend = 0, frame = 0
 2483              		@ frame_needed = 0, uses_anonymous_args = 0
 2484              	.LVL240:
 2485 0000 10B5     		push	{r4, lr}
 2486              	.LCFI19:
 2487              		.cfi_def_cfa_offset 8
 2488              		.cfi_offset 4, -8
 2489              		.cfi_offset 14, -4
 2490 0002 0446     		mov	r4, r0
 559:Drivers/STM32F3xx_HAL_Driver/Src/stm32f3xx_hal_pcd.c ****   {
 2491              		.loc 1 559 0
 2492 0004 0368     		ldr	r3, [r0]
 2493 0006 B3F84430 		ldrh	r3, [r3, #68]
 2494 000a 13F4004F 		tst	r3, #32768
 2495 000e 01D0     		beq	.L140
 563:Drivers/STM32F3xx_HAL_Driver/Src/stm32f3xx_hal_pcd.c ****   }
 2496              		.loc 1 563 0
 2497 0010 FFF7FEFF 		bl	PCD_EP_ISR_Handler
 2498              	.LVL241:
 2499              	.L140:
 566:Drivers/STM32F3xx_HAL_Driver/Src/stm32f3xx_hal_pcd.c ****   {
 2500              		.loc 1 566 0
 2501 0014 2268     		ldr	r2, [r4]
 2502 0016 B2F84430 		ldrh	r3, [r2, #68]
 2503 001a 03F48063 		and	r3, r3, #1024
 2504 001e 9BB2     		uxth	r3, r3
 2505 0020 53B1     		cbz	r3, .L141
 568:Drivers/STM32F3xx_HAL_Driver/Src/stm32f3xx_hal_pcd.c ****     HAL_PCD_ResetCallback(hpcd);
 2506              		.loc 1 568 0
 2507 0022 4FF6FF33 		movw	r3, #64511
 2508 0026 A2F84430 		strh	r3, [r2, #68]	@ movhi
 569:Drivers/STM32F3xx_HAL_Driver/Src/stm32f3xx_hal_pcd.c ****     HAL_PCD_SetAddress(hpcd, 0U);
 2509              		.loc 1 569 0
 2510 002a 2046     		mov	r0, r4
 2511 002c FFF7FEFF 		bl	HAL_PCD_ResetCallback
 2512              	.LVL242:
 570:Drivers/STM32F3xx_HAL_Driver/Src/stm32f3xx_hal_pcd.c ****   }
 2513              		.loc 1 570 0
 2514 0030 0021     		movs	r1, #0
 2515 0032 2046     		mov	r0, r4
 2516 0034 FFF7FEFF 		bl	HAL_PCD_SetAddress
ARM GAS  /tmp/ccwKMGBI.s 			page 67


 2517              	.LVL243:
 2518              	.L141:
 573:Drivers/STM32F3xx_HAL_Driver/Src/stm32f3xx_hal_pcd.c ****   {
 2519              		.loc 1 573 0
 2520 0038 2268     		ldr	r2, [r4]
 2521 003a B2F84430 		ldrh	r3, [r2, #68]
 2522 003e 03F48043 		and	r3, r3, #16384
 2523 0042 9BB2     		uxth	r3, r3
 2524 0044 1BB1     		cbz	r3, .L142
 575:Drivers/STM32F3xx_HAL_Driver/Src/stm32f3xx_hal_pcd.c ****   }
 2525              		.loc 1 575 0
 2526 0046 4BF6FF73 		movw	r3, #49151
 2527 004a A2F84430 		strh	r3, [r2, #68]	@ movhi
 2528              	.L142:
 577:Drivers/STM32F3xx_HAL_Driver/Src/stm32f3xx_hal_pcd.c ****   {
 2529              		.loc 1 577 0
 2530 004e 2268     		ldr	r2, [r4]
 2531 0050 B2F84430 		ldrh	r3, [r2, #68]
 2532 0054 03F40053 		and	r3, r3, #8192
 2533 0058 9BB2     		uxth	r3, r3
 2534 005a 1BB1     		cbz	r3, .L143
 579:Drivers/STM32F3xx_HAL_Driver/Src/stm32f3xx_hal_pcd.c ****   }
 2535              		.loc 1 579 0
 2536 005c 4DF6FF73 		movw	r3, #57343
 2537 0060 A2F84430 		strh	r3, [r2, #68]	@ movhi
 2538              	.L143:
 582:Drivers/STM32F3xx_HAL_Driver/Src/stm32f3xx_hal_pcd.c ****   {
 2539              		.loc 1 582 0
 2540 0064 2268     		ldr	r2, [r4]
 2541 0066 B2F84430 		ldrh	r3, [r2, #68]
 2542 006a 03F48053 		and	r3, r3, #4096
 2543 006e 9BB2     		uxth	r3, r3
 2544 0070 C3B1     		cbz	r3, .L144
 584:Drivers/STM32F3xx_HAL_Driver/Src/stm32f3xx_hal_pcd.c ****     hpcd->Instance->CNTR &= (uint16_t) ~(USB_CNTR_FSUSP);
 2545              		.loc 1 584 0
 2546 0072 B2F84030 		ldrh	r3, [r2, #64]
 2547 0076 9BB2     		uxth	r3, r3
 2548 0078 23F00403 		bic	r3, r3, #4
 2549 007c 9BB2     		uxth	r3, r3
 2550 007e A2F84030 		strh	r3, [r2, #64]	@ movhi
 585:Drivers/STM32F3xx_HAL_Driver/Src/stm32f3xx_hal_pcd.c **** 
 2551              		.loc 1 585 0
 2552 0082 2268     		ldr	r2, [r4]
 2553 0084 B2F84030 		ldrh	r3, [r2, #64]
 2554 0088 9BB2     		uxth	r3, r3
 2555 008a 23F00803 		bic	r3, r3, #8
 2556 008e 9BB2     		uxth	r3, r3
 2557 0090 A2F84030 		strh	r3, [r2, #64]	@ movhi
 587:Drivers/STM32F3xx_HAL_Driver/Src/stm32f3xx_hal_pcd.c **** 
 2558              		.loc 1 587 0
 2559 0094 2046     		mov	r0, r4
 2560 0096 FFF7FEFF 		bl	HAL_PCD_ResumeCallback
 2561              	.LVL244:
 589:Drivers/STM32F3xx_HAL_Driver/Src/stm32f3xx_hal_pcd.c ****   }
 2562              		.loc 1 589 0
 2563 009a 2368     		ldr	r3, [r4]
 2564 009c 4EF6FF72 		movw	r2, #61439
ARM GAS  /tmp/ccwKMGBI.s 			page 68


 2565 00a0 A3F84420 		strh	r2, [r3, #68]	@ movhi
 2566              	.L144:
 592:Drivers/STM32F3xx_HAL_Driver/Src/stm32f3xx_hal_pcd.c ****   {
 2567              		.loc 1 592 0
 2568 00a4 2268     		ldr	r2, [r4]
 2569 00a6 B2F84430 		ldrh	r3, [r2, #68]
 2570 00aa 03F40063 		and	r3, r3, #2048
 2571 00ae 9BB2     		uxth	r3, r3
 2572 00b0 EBB1     		cbz	r3, .L145
 595:Drivers/STM32F3xx_HAL_Driver/Src/stm32f3xx_hal_pcd.c **** 
 2573              		.loc 1 595 0
 2574 00b2 B2F84030 		ldrh	r3, [r2, #64]
 2575 00b6 9BB2     		uxth	r3, r3
 2576 00b8 43F00803 		orr	r3, r3, #8
 2577 00bc A2F84030 		strh	r3, [r2, #64]	@ movhi
 598:Drivers/STM32F3xx_HAL_Driver/Src/stm32f3xx_hal_pcd.c **** 
 2578              		.loc 1 598 0
 2579 00c0 2368     		ldr	r3, [r4]
 2580 00c2 4FF2FF72 		movw	r2, #63487
 2581 00c6 A3F84420 		strh	r2, [r3, #68]	@ movhi
 600:Drivers/STM32F3xx_HAL_Driver/Src/stm32f3xx_hal_pcd.c ****     if (__HAL_PCD_GET_FLAG (hpcd, USB_ISTR_WKUP) == 0U)
 2582              		.loc 1 600 0
 2583 00ca 2268     		ldr	r2, [r4]
 2584 00cc B2F84030 		ldrh	r3, [r2, #64]
 2585 00d0 9BB2     		uxth	r3, r3
 2586 00d2 43F00403 		orr	r3, r3, #4
 2587 00d6 A2F84030 		strh	r3, [r2, #64]	@ movhi
 601:Drivers/STM32F3xx_HAL_Driver/Src/stm32f3xx_hal_pcd.c ****     {
 2588              		.loc 1 601 0
 2589 00da 2368     		ldr	r3, [r4]
 2590 00dc B3F84430 		ldrh	r3, [r3, #68]
 2591 00e0 03F48053 		and	r3, r3, #4096
 2592 00e4 9BB2     		uxth	r3, r3
 2593 00e6 13B9     		cbnz	r3, .L145
 603:Drivers/STM32F3xx_HAL_Driver/Src/stm32f3xx_hal_pcd.c ****     }
 2594              		.loc 1 603 0
 2595 00e8 2046     		mov	r0, r4
 2596 00ea FFF7FEFF 		bl	HAL_PCD_SuspendCallback
 2597              	.LVL245:
 2598              	.L145:
 607:Drivers/STM32F3xx_HAL_Driver/Src/stm32f3xx_hal_pcd.c ****   {
 2599              		.loc 1 607 0
 2600 00ee 2268     		ldr	r2, [r4]
 2601 00f0 B2F84430 		ldrh	r3, [r2, #68]
 2602 00f4 03F40073 		and	r3, r3, #512
 2603 00f8 9BB2     		uxth	r3, r3
 2604 00fa 33B1     		cbz	r3, .L146
 609:Drivers/STM32F3xx_HAL_Driver/Src/stm32f3xx_hal_pcd.c ****     HAL_PCD_SOFCallback(hpcd);
 2605              		.loc 1 609 0
 2606 00fc 4FF6FF53 		movw	r3, #65023
 2607 0100 A2F84430 		strh	r3, [r2, #68]	@ movhi
 610:Drivers/STM32F3xx_HAL_Driver/Src/stm32f3xx_hal_pcd.c ****   }
 2608              		.loc 1 610 0
 2609 0104 2046     		mov	r0, r4
 2610 0106 FFF7FEFF 		bl	HAL_PCD_SOFCallback
 2611              	.LVL246:
 2612              	.L146:
ARM GAS  /tmp/ccwKMGBI.s 			page 69


 613:Drivers/STM32F3xx_HAL_Driver/Src/stm32f3xx_hal_pcd.c ****   {
 2613              		.loc 1 613 0
 2614 010a 2268     		ldr	r2, [r4]
 2615 010c B2F84430 		ldrh	r3, [r2, #68]
 2616 0110 03F48073 		and	r3, r3, #256
 2617 0114 9BB2     		uxth	r3, r3
 2618 0116 1BB1     		cbz	r3, .L139
 616:Drivers/STM32F3xx_HAL_Driver/Src/stm32f3xx_hal_pcd.c ****   }
 2619              		.loc 1 616 0
 2620 0118 4FF6FF63 		movw	r3, #65279
 2621 011c A2F84430 		strh	r3, [r2, #68]	@ movhi
 2622              	.L139:
 2623 0120 10BD     		pop	{r4, pc}
 2624              		.cfi_endproc
 2625              	.LFE131:
 2627 0122 00BF     		.section	.text.HAL_PCD_EP_SetStall,"ax",%progbits
 2628              		.align	2
 2629              		.global	HAL_PCD_EP_SetStall
 2630              		.thumb
 2631              		.thumb_func
 2633              	HAL_PCD_EP_SetStall:
 2634              	.LFB151:
1164:Drivers/STM32F3xx_HAL_Driver/Src/stm32f3xx_hal_pcd.c **** 
1165:Drivers/STM32F3xx_HAL_Driver/Src/stm32f3xx_hal_pcd.c **** /**
1166:Drivers/STM32F3xx_HAL_Driver/Src/stm32f3xx_hal_pcd.c ****   * @brief  Set a STALL condition over an endpoint
1167:Drivers/STM32F3xx_HAL_Driver/Src/stm32f3xx_hal_pcd.c ****   * @param  hpcd PCD handle
1168:Drivers/STM32F3xx_HAL_Driver/Src/stm32f3xx_hal_pcd.c ****   * @param  ep_addr endpoint address
1169:Drivers/STM32F3xx_HAL_Driver/Src/stm32f3xx_hal_pcd.c ****   * @retval HAL status
1170:Drivers/STM32F3xx_HAL_Driver/Src/stm32f3xx_hal_pcd.c ****   */
1171:Drivers/STM32F3xx_HAL_Driver/Src/stm32f3xx_hal_pcd.c **** HAL_StatusTypeDef HAL_PCD_EP_SetStall(PCD_HandleTypeDef *hpcd, uint8_t ep_addr)
1172:Drivers/STM32F3xx_HAL_Driver/Src/stm32f3xx_hal_pcd.c **** {
 2635              		.loc 1 1172 0
 2636              		.cfi_startproc
 2637              		@ args = 0, pretend = 0, frame = 0
 2638              		@ frame_needed = 0, uses_anonymous_args = 0
 2639              		@ link register save eliminated.
 2640              	.LVL247:
1173:Drivers/STM32F3xx_HAL_Driver/Src/stm32f3xx_hal_pcd.c ****   PCD_EPTypeDef *ep;
1174:Drivers/STM32F3xx_HAL_Driver/Src/stm32f3xx_hal_pcd.c ****    
1175:Drivers/STM32F3xx_HAL_Driver/Src/stm32f3xx_hal_pcd.c ****   __HAL_LOCK(hpcd); 
 2641              		.loc 1 1175 0
 2642 0000 90F87033 		ldrb	r3, [r0, #880]	@ zero_extendqisi2
 2643 0004 012B     		cmp	r3, #1
 2644 0006 54D0     		beq	.L156
1172:Drivers/STM32F3xx_HAL_Driver/Src/stm32f3xx_hal_pcd.c ****   PCD_EPTypeDef *ep;
 2645              		.loc 1 1172 0 discriminator 2
 2646 0008 10B4     		push	{r4}
 2647              	.LCFI20:
 2648              		.cfi_def_cfa_offset 4
 2649              		.cfi_offset 4, -4
 2650              		.loc 1 1175 0 discriminator 2
 2651 000a 0123     		movs	r3, #1
 2652 000c 80F87033 		strb	r3, [r0, #880]
1176:Drivers/STM32F3xx_HAL_Driver/Src/stm32f3xx_hal_pcd.c ****    
1177:Drivers/STM32F3xx_HAL_Driver/Src/stm32f3xx_hal_pcd.c ****   if ((0x80U & ep_addr) == 0x80U)
 2653              		.loc 1 1177 0 discriminator 2
 2654 0010 4AB2     		sxtb	r2, r1
ARM GAS  /tmp/ccwKMGBI.s 			page 70


 2655 0012 002A     		cmp	r2, #0
 2656 0014 07DA     		bge	.L151
1178:Drivers/STM32F3xx_HAL_Driver/Src/stm32f3xx_hal_pcd.c ****   {
1179:Drivers/STM32F3xx_HAL_Driver/Src/stm32f3xx_hal_pcd.c ****     ep = &hpcd->IN_ep[ep_addr & 0x7F];
 2657              		.loc 1 1179 0
 2658 0016 01F07F04 		and	r4, r1, #127
 2659 001a C4EBC404 		rsb	r4, r4, r4, lsl #3
 2660 001e A300     		lsls	r3, r4, #2
 2661 0020 2833     		adds	r3, r3, #40
 2662 0022 0344     		add	r3, r3, r0
 2663              	.LVL248:
 2664 0024 06E0     		b	.L152
 2665              	.LVL249:
 2666              	.L151:
1180:Drivers/STM32F3xx_HAL_Driver/Src/stm32f3xx_hal_pcd.c ****   }
1181:Drivers/STM32F3xx_HAL_Driver/Src/stm32f3xx_hal_pcd.c ****   else
1182:Drivers/STM32F3xx_HAL_Driver/Src/stm32f3xx_hal_pcd.c ****   {
1183:Drivers/STM32F3xx_HAL_Driver/Src/stm32f3xx_hal_pcd.c ****     ep = &hpcd->OUT_ep[ep_addr];
 2667              		.loc 1 1183 0
 2668 0026 C1EBC104 		rsb	r4, r1, r1, lsl #3
 2669 002a A300     		lsls	r3, r4, #2
 2670 002c 03F5E473 		add	r3, r3, #456
 2671 0030 0344     		add	r3, r3, r0
 2672 0032 0433     		adds	r3, r3, #4
 2673              	.LVL250:
 2674              	.L152:
1184:Drivers/STM32F3xx_HAL_Driver/Src/stm32f3xx_hal_pcd.c ****   }
1185:Drivers/STM32F3xx_HAL_Driver/Src/stm32f3xx_hal_pcd.c ****   
1186:Drivers/STM32F3xx_HAL_Driver/Src/stm32f3xx_hal_pcd.c ****   ep->is_stall = 1U;
 2675              		.loc 1 1186 0
 2676 0034 0124     		movs	r4, #1
 2677 0036 9C70     		strb	r4, [r3, #2]
1187:Drivers/STM32F3xx_HAL_Driver/Src/stm32f3xx_hal_pcd.c ****   ep->num   = ep_addr & 0x7FU;
 2678              		.loc 1 1187 0
 2679 0038 01F07F01 		and	r1, r1, #127
 2680              	.LVL251:
 2681 003c 1970     		strb	r1, [r3]
1188:Drivers/STM32F3xx_HAL_Driver/Src/stm32f3xx_hal_pcd.c ****   ep->is_in = ((ep_addr & 0x80U) == 0x80U);
 2682              		.loc 1 1188 0
 2683 003e D20F     		lsrs	r2, r2, #31
 2684              	.LVL252:
 2685 0040 5A70     		strb	r2, [r3, #1]
1189:Drivers/STM32F3xx_HAL_Driver/Src/stm32f3xx_hal_pcd.c ****   
1190:Drivers/STM32F3xx_HAL_Driver/Src/stm32f3xx_hal_pcd.c ****   if (ep->num == 0U)
 2686              		.loc 1 1190 0
 2687 0042 89B9     		cbnz	r1, .L153
 2688              	.LBB25:
1191:Drivers/STM32F3xx_HAL_Driver/Src/stm32f3xx_hal_pcd.c ****   {
1192:Drivers/STM32F3xx_HAL_Driver/Src/stm32f3xx_hal_pcd.c ****     /* This macro sets STALL status for RX & TX*/ 
1193:Drivers/STM32F3xx_HAL_Driver/Src/stm32f3xx_hal_pcd.c ****     PCD_SET_EP_TXRX_STATUS(hpcd->Instance, ep->num, USB_EP_RX_STALL, USB_EP_TX_STALL) 
 2689              		.loc 1 1193 0
 2690 0044 0268     		ldr	r2, [r0]
 2691 0046 32F82130 		ldrh	r3, [r2, r1, lsl #2]
 2692              	.LVL253:
 2693 004a 23F48043 		bic	r3, r3, #16384
 2694              	.LVL254:
 2695 004e 23F04003 		bic	r3, r3, #64
ARM GAS  /tmp/ccwKMGBI.s 			page 71


 2696 0052 83F48053 		eor	r3, r3, #4096
 2697 0056 83F01003 		eor	r3, r3, #16
 2698 005a 43F40043 		orr	r3, r3, #32768
 2699 005e 43F08003 		orr	r3, r3, #128
 2700 0062 22F82130 		strh	r3, [r2, r1, lsl #2]	@ movhi
 2701              	.LVL255:
 2702              	.LBE25:
 2703 0066 1FE0     		b	.L154
 2704              	.LVL256:
 2705              	.L153:
1194:Drivers/STM32F3xx_HAL_Driver/Src/stm32f3xx_hal_pcd.c ****   }
1195:Drivers/STM32F3xx_HAL_Driver/Src/stm32f3xx_hal_pcd.c ****   else
1196:Drivers/STM32F3xx_HAL_Driver/Src/stm32f3xx_hal_pcd.c ****   {
1197:Drivers/STM32F3xx_HAL_Driver/Src/stm32f3xx_hal_pcd.c ****     if (ep->is_in)
 2706              		.loc 1 1197 0
 2707 0068 7AB1     		cbz	r2, .L155
 2708              	.LBB26:
1198:Drivers/STM32F3xx_HAL_Driver/Src/stm32f3xx_hal_pcd.c ****     {
1199:Drivers/STM32F3xx_HAL_Driver/Src/stm32f3xx_hal_pcd.c ****       PCD_SET_EP_TX_STATUS(hpcd->Instance, ep->num , USB_EP_TX_STALL) 
 2709              		.loc 1 1199 0
 2710 006a 0268     		ldr	r2, [r0]
 2711 006c 32F82130 		ldrh	r3, [r2, r1, lsl #2]
 2712              	.LVL257:
 2713 0070 23F4E043 		bic	r3, r3, #28672
 2714 0074 23F04003 		bic	r3, r3, #64
 2715              	.LVL258:
 2716 0078 83F01003 		eor	r3, r3, #16
 2717              	.LVL259:
 2718 007c 43F40043 		orr	r3, r3, #32768
 2719              	.LVL260:
 2720 0080 43F08003 		orr	r3, r3, #128
 2721 0084 22F82130 		strh	r3, [r2, r1, lsl #2]	@ movhi
 2722              	.LVL261:
 2723              	.LBE26:
 2724 0088 0EE0     		b	.L154
 2725              	.LVL262:
 2726              	.L155:
 2727              	.LBB27:
1200:Drivers/STM32F3xx_HAL_Driver/Src/stm32f3xx_hal_pcd.c ****     }
1201:Drivers/STM32F3xx_HAL_Driver/Src/stm32f3xx_hal_pcd.c ****     else
1202:Drivers/STM32F3xx_HAL_Driver/Src/stm32f3xx_hal_pcd.c ****     {
1203:Drivers/STM32F3xx_HAL_Driver/Src/stm32f3xx_hal_pcd.c ****       PCD_SET_EP_RX_STATUS(hpcd->Instance, ep->num , USB_EP_RX_STALL)
 2728              		.loc 1 1203 0
 2729 008a 0268     		ldr	r2, [r0]
 2730 008c 32F82130 		ldrh	r3, [r2, r1, lsl #2]
 2731              	.LVL263:
 2732 0090 23F48043 		bic	r3, r3, #16384
 2733 0094 23F07003 		bic	r3, r3, #112
 2734              	.LVL264:
 2735 0098 83F48053 		eor	r3, r3, #4096
 2736              	.LVL265:
 2737 009c 43F40043 		orr	r3, r3, #32768
 2738              	.LVL266:
 2739 00a0 43F08003 		orr	r3, r3, #128
 2740 00a4 22F82130 		strh	r3, [r2, r1, lsl #2]	@ movhi
 2741              	.LVL267:
 2742              	.L154:
ARM GAS  /tmp/ccwKMGBI.s 			page 72


 2743              	.LBE27:
1204:Drivers/STM32F3xx_HAL_Driver/Src/stm32f3xx_hal_pcd.c ****     }
1205:Drivers/STM32F3xx_HAL_Driver/Src/stm32f3xx_hal_pcd.c ****   }
1206:Drivers/STM32F3xx_HAL_Driver/Src/stm32f3xx_hal_pcd.c ****   __HAL_UNLOCK(hpcd); 
 2744              		.loc 1 1206 0
 2745 00a8 0023     		movs	r3, #0
 2746 00aa 80F87033 		strb	r3, [r0, #880]
1207:Drivers/STM32F3xx_HAL_Driver/Src/stm32f3xx_hal_pcd.c ****   
1208:Drivers/STM32F3xx_HAL_Driver/Src/stm32f3xx_hal_pcd.c ****   return HAL_OK;
 2747              		.loc 1 1208 0
 2748 00ae 1846     		mov	r0, r3
 2749              	.LVL268:
 2750 00b0 01E0     		b	.L150
 2751              	.LVL269:
 2752              	.L156:
 2753              	.LCFI21:
 2754              		.cfi_def_cfa_offset 0
 2755              		.cfi_restore 4
1175:Drivers/STM32F3xx_HAL_Driver/Src/stm32f3xx_hal_pcd.c ****    
 2756              		.loc 1 1175 0
 2757 00b2 0220     		movs	r0, #2
 2758              	.LVL270:
 2759 00b4 7047     		bx	lr
 2760              	.LVL271:
 2761              	.L150:
 2762              	.LCFI22:
 2763              		.cfi_def_cfa_offset 4
 2764              		.cfi_offset 4, -4
1209:Drivers/STM32F3xx_HAL_Driver/Src/stm32f3xx_hal_pcd.c **** }
 2765              		.loc 1 1209 0
 2766 00b6 5DF8044B 		ldr	r4, [sp], #4
 2767              	.LCFI23:
 2768              		.cfi_restore 4
 2769              		.cfi_def_cfa_offset 0
 2770 00ba 7047     		bx	lr
 2771              		.cfi_endproc
 2772              	.LFE151:
 2774              		.section	.text.HAL_PCD_EP_ClrStall,"ax",%progbits
 2775              		.align	2
 2776              		.global	HAL_PCD_EP_ClrStall
 2777              		.thumb
 2778              		.thumb_func
 2780              	HAL_PCD_EP_ClrStall:
 2781              	.LFB152:
1210:Drivers/STM32F3xx_HAL_Driver/Src/stm32f3xx_hal_pcd.c **** 
1211:Drivers/STM32F3xx_HAL_Driver/Src/stm32f3xx_hal_pcd.c **** /**
1212:Drivers/STM32F3xx_HAL_Driver/Src/stm32f3xx_hal_pcd.c ****   * @brief  Clear a STALL condition over in an endpoint
1213:Drivers/STM32F3xx_HAL_Driver/Src/stm32f3xx_hal_pcd.c ****   * @param  hpcd PCD handle
1214:Drivers/STM32F3xx_HAL_Driver/Src/stm32f3xx_hal_pcd.c ****   * @param  ep_addr endpoint address
1215:Drivers/STM32F3xx_HAL_Driver/Src/stm32f3xx_hal_pcd.c ****   * @retval HAL status
1216:Drivers/STM32F3xx_HAL_Driver/Src/stm32f3xx_hal_pcd.c ****   */
1217:Drivers/STM32F3xx_HAL_Driver/Src/stm32f3xx_hal_pcd.c **** HAL_StatusTypeDef HAL_PCD_EP_ClrStall(PCD_HandleTypeDef *hpcd, uint8_t ep_addr)
1218:Drivers/STM32F3xx_HAL_Driver/Src/stm32f3xx_hal_pcd.c **** {
 2782              		.loc 1 1218 0
 2783              		.cfi_startproc
 2784              		@ args = 0, pretend = 0, frame = 0
 2785              		@ frame_needed = 0, uses_anonymous_args = 0
ARM GAS  /tmp/ccwKMGBI.s 			page 73


 2786              		@ link register save eliminated.
 2787              	.LVL272:
 2788 0000 30B4     		push	{r4, r5}
 2789              	.LCFI24:
 2790              		.cfi_def_cfa_offset 8
 2791              		.cfi_offset 4, -8
 2792              		.cfi_offset 5, -4
1219:Drivers/STM32F3xx_HAL_Driver/Src/stm32f3xx_hal_pcd.c ****   PCD_EPTypeDef *ep;
1220:Drivers/STM32F3xx_HAL_Driver/Src/stm32f3xx_hal_pcd.c ****   
1221:Drivers/STM32F3xx_HAL_Driver/Src/stm32f3xx_hal_pcd.c ****   if ((0x80U & ep_addr) == 0x80U)
 2793              		.loc 1 1221 0
 2794 0002 4AB2     		sxtb	r2, r1
 2795 0004 002A     		cmp	r2, #0
 2796 0006 07DA     		bge	.L160
1222:Drivers/STM32F3xx_HAL_Driver/Src/stm32f3xx_hal_pcd.c ****   {
1223:Drivers/STM32F3xx_HAL_Driver/Src/stm32f3xx_hal_pcd.c ****     ep = &hpcd->IN_ep[ep_addr & 0x7F];
 2797              		.loc 1 1223 0
 2798 0008 01F07F04 		and	r4, r1, #127
 2799 000c C4EBC404 		rsb	r4, r4, r4, lsl #3
 2800 0010 A300     		lsls	r3, r4, #2
 2801 0012 2833     		adds	r3, r3, #40
 2802 0014 0344     		add	r3, r3, r0
 2803              	.LVL273:
 2804 0016 06E0     		b	.L161
 2805              	.LVL274:
 2806              	.L160:
1224:Drivers/STM32F3xx_HAL_Driver/Src/stm32f3xx_hal_pcd.c ****   }
1225:Drivers/STM32F3xx_HAL_Driver/Src/stm32f3xx_hal_pcd.c ****   else
1226:Drivers/STM32F3xx_HAL_Driver/Src/stm32f3xx_hal_pcd.c ****   {
1227:Drivers/STM32F3xx_HAL_Driver/Src/stm32f3xx_hal_pcd.c ****     ep = &hpcd->OUT_ep[ep_addr];
 2807              		.loc 1 1227 0
 2808 0018 C1EBC104 		rsb	r4, r1, r1, lsl #3
 2809 001c A300     		lsls	r3, r4, #2
 2810 001e 03F5E473 		add	r3, r3, #456
 2811 0022 0344     		add	r3, r3, r0
 2812 0024 0433     		adds	r3, r3, #4
 2813              	.LVL275:
 2814              	.L161:
1228:Drivers/STM32F3xx_HAL_Driver/Src/stm32f3xx_hal_pcd.c ****   }
1229:Drivers/STM32F3xx_HAL_Driver/Src/stm32f3xx_hal_pcd.c ****   
1230:Drivers/STM32F3xx_HAL_Driver/Src/stm32f3xx_hal_pcd.c ****   ep->is_stall = 0U;
 2815              		.loc 1 1230 0
 2816 0026 0024     		movs	r4, #0
 2817 0028 9C70     		strb	r4, [r3, #2]
1231:Drivers/STM32F3xx_HAL_Driver/Src/stm32f3xx_hal_pcd.c ****   ep->num   = ep_addr & 0x7FU;
 2818              		.loc 1 1231 0
 2819 002a 01F07F01 		and	r1, r1, #127
 2820              	.LVL276:
 2821 002e 1970     		strb	r1, [r3]
1232:Drivers/STM32F3xx_HAL_Driver/Src/stm32f3xx_hal_pcd.c ****   ep->is_in = ((ep_addr & 0x80U) == 0x80U);
 2822              		.loc 1 1232 0
 2823 0030 D20F     		lsrs	r2, r2, #31
 2824              	.LVL277:
 2825 0032 5A70     		strb	r2, [r3, #1]
1233:Drivers/STM32F3xx_HAL_Driver/Src/stm32f3xx_hal_pcd.c ****   
1234:Drivers/STM32F3xx_HAL_Driver/Src/stm32f3xx_hal_pcd.c ****   __HAL_LOCK(hpcd); 
 2826              		.loc 1 1234 0
ARM GAS  /tmp/ccwKMGBI.s 			page 74


 2827 0034 90F87023 		ldrb	r2, [r0, #880]	@ zero_extendqisi2
 2828 0038 012A     		cmp	r2, #1
 2829 003a 4ED0     		beq	.L167
 2830              		.loc 1 1234 0 is_stmt 0 discriminator 2
 2831 003c 0122     		movs	r2, #1
 2832 003e 80F87023 		strb	r2, [r0, #880]
1235:Drivers/STM32F3xx_HAL_Driver/Src/stm32f3xx_hal_pcd.c ****   
1236:Drivers/STM32F3xx_HAL_Driver/Src/stm32f3xx_hal_pcd.c ****   if (ep->is_in)
 2833              		.loc 1 1236 0 is_stmt 1 discriminator 2
 2834 0042 5A78     		ldrb	r2, [r3, #1]	@ zero_extendqisi2
 2835 0044 12B3     		cbz	r2, .L163
1237:Drivers/STM32F3xx_HAL_Driver/Src/stm32f3xx_hal_pcd.c ****   {
1238:Drivers/STM32F3xx_HAL_Driver/Src/stm32f3xx_hal_pcd.c ****     PCD_CLEAR_TX_DTOG(hpcd->Instance, ep->num)
 2836              		.loc 1 1238 0
 2837 0046 0468     		ldr	r4, [r0]
 2838 0048 1D78     		ldrb	r5, [r3]	@ zero_extendqisi2
 2839 004a 34F82520 		ldrh	r2, [r4, r5, lsl #2]
 2840 004e 02F04001 		and	r1, r2, #64
 2841 0052 89B2     		uxth	r1, r1
 2842 0054 49B1     		cbz	r1, .L164
 2843              		.loc 1 1238 0 is_stmt 0 discriminator 1
 2844 0056 22F0F002 		bic	r2, r2, #240
 2845 005a 1205     		lsls	r2, r2, #20
 2846 005c 120D     		lsrs	r2, r2, #20
 2847 005e 42F40042 		orr	r2, r2, #32768
 2848 0062 42F0C002 		orr	r2, r2, #192
 2849 0066 24F82520 		strh	r2, [r4, r5, lsl #2]	@ movhi
 2850              	.L164:
 2851              	.LBB28:
1239:Drivers/STM32F3xx_HAL_Driver/Src/stm32f3xx_hal_pcd.c ****     PCD_SET_EP_TX_STATUS(hpcd->Instance, ep->num, USB_EP_TX_VALID)
 2852              		.loc 1 1239 0 is_stmt 1
 2853 006a 0268     		ldr	r2, [r0]
 2854 006c 1978     		ldrb	r1, [r3]	@ zero_extendqisi2
 2855 006e 32F82130 		ldrh	r3, [r2, r1, lsl #2]
 2856              	.LVL278:
 2857 0072 23F4E043 		bic	r3, r3, #28672
 2858 0076 23F04003 		bic	r3, r3, #64
 2859              	.LVL279:
 2860 007a 83F03003 		eor	r3, r3, #48
 2861              	.LVL280:
 2862 007e 43F40043 		orr	r3, r3, #32768
 2863              	.LVL281:
 2864 0082 43F08003 		orr	r3, r3, #128
 2865 0086 22F82130 		strh	r3, [r2, r1, lsl #2]	@ movhi
 2866              	.LVL282:
 2867              	.LBE28:
 2868 008a 21E0     		b	.L165
 2869              	.LVL283:
 2870              	.L163:
1240:Drivers/STM32F3xx_HAL_Driver/Src/stm32f3xx_hal_pcd.c ****   }
1241:Drivers/STM32F3xx_HAL_Driver/Src/stm32f3xx_hal_pcd.c ****   else
1242:Drivers/STM32F3xx_HAL_Driver/Src/stm32f3xx_hal_pcd.c ****   {
1243:Drivers/STM32F3xx_HAL_Driver/Src/stm32f3xx_hal_pcd.c ****     PCD_CLEAR_RX_DTOG(hpcd->Instance, ep->num)
 2871              		.loc 1 1243 0
 2872 008c 0468     		ldr	r4, [r0]
 2873 008e 1D78     		ldrb	r5, [r3]	@ zero_extendqisi2
 2874 0090 34F82520 		ldrh	r2, [r4, r5, lsl #2]
ARM GAS  /tmp/ccwKMGBI.s 			page 75


 2875 0094 02F48041 		and	r1, r2, #16384
 2876 0098 89B2     		uxth	r1, r1
 2877 009a 49B1     		cbz	r1, .L166
 2878              		.loc 1 1243 0 is_stmt 0 discriminator 1
 2879 009c 22F0F002 		bic	r2, r2, #240
 2880 00a0 1205     		lsls	r2, r2, #20
 2881 00a2 120D     		lsrs	r2, r2, #20
 2882 00a4 42F44042 		orr	r2, r2, #49152
 2883 00a8 42F08002 		orr	r2, r2, #128
 2884 00ac 24F82520 		strh	r2, [r4, r5, lsl #2]	@ movhi
 2885              	.L166:
 2886              	.LBB29:
1244:Drivers/STM32F3xx_HAL_Driver/Src/stm32f3xx_hal_pcd.c ****     PCD_SET_EP_RX_STATUS(hpcd->Instance, ep->num, USB_EP_RX_VALID)
 2887              		.loc 1 1244 0 is_stmt 1
 2888 00b0 0268     		ldr	r2, [r0]
 2889 00b2 1978     		ldrb	r1, [r3]	@ zero_extendqisi2
 2890 00b4 32F82130 		ldrh	r3, [r2, r1, lsl #2]
 2891              	.LVL284:
 2892 00b8 23F48043 		bic	r3, r3, #16384
 2893 00bc 23F07003 		bic	r3, r3, #112
 2894              	.LVL285:
 2895 00c0 83F44053 		eor	r3, r3, #12288
 2896              	.LVL286:
 2897 00c4 43F40043 		orr	r3, r3, #32768
 2898              	.LVL287:
 2899 00c8 43F08003 		orr	r3, r3, #128
 2900 00cc 22F82130 		strh	r3, [r2, r1, lsl #2]	@ movhi
 2901              	.LVL288:
 2902              	.L165:
 2903              	.LBE29:
1245:Drivers/STM32F3xx_HAL_Driver/Src/stm32f3xx_hal_pcd.c ****   }
1246:Drivers/STM32F3xx_HAL_Driver/Src/stm32f3xx_hal_pcd.c ****   __HAL_UNLOCK(hpcd); 
 2904              		.loc 1 1246 0
 2905 00d0 0023     		movs	r3, #0
 2906 00d2 80F87033 		strb	r3, [r0, #880]
1247:Drivers/STM32F3xx_HAL_Driver/Src/stm32f3xx_hal_pcd.c ****     
1248:Drivers/STM32F3xx_HAL_Driver/Src/stm32f3xx_hal_pcd.c ****   return HAL_OK;
 2907              		.loc 1 1248 0
 2908 00d6 1846     		mov	r0, r3
 2909              	.LVL289:
 2910 00d8 00E0     		b	.L162
 2911              	.LVL290:
 2912              	.L167:
1234:Drivers/STM32F3xx_HAL_Driver/Src/stm32f3xx_hal_pcd.c ****   
 2913              		.loc 1 1234 0
 2914 00da 0220     		movs	r0, #2
 2915              	.LVL291:
 2916              	.L162:
1249:Drivers/STM32F3xx_HAL_Driver/Src/stm32f3xx_hal_pcd.c **** }
 2917              		.loc 1 1249 0
 2918 00dc 30BC     		pop	{r4, r5}
 2919              	.LCFI25:
 2920              		.cfi_restore 5
 2921              		.cfi_restore 4
 2922              		.cfi_def_cfa_offset 0
 2923 00de 7047     		bx	lr
 2924              		.cfi_endproc
ARM GAS  /tmp/ccwKMGBI.s 			page 76


 2925              	.LFE152:
 2927              		.section	.text.HAL_PCD_EP_Flush,"ax",%progbits
 2928              		.align	2
 2929              		.global	HAL_PCD_EP_Flush
 2930              		.thumb
 2931              		.thumb_func
 2933              	HAL_PCD_EP_Flush:
 2934              	.LFB153:
1250:Drivers/STM32F3xx_HAL_Driver/Src/stm32f3xx_hal_pcd.c **** 
1251:Drivers/STM32F3xx_HAL_Driver/Src/stm32f3xx_hal_pcd.c **** /**
1252:Drivers/STM32F3xx_HAL_Driver/Src/stm32f3xx_hal_pcd.c ****   * @brief  Flush an endpoint
1253:Drivers/STM32F3xx_HAL_Driver/Src/stm32f3xx_hal_pcd.c ****   * @param  hpcd PCD handle
1254:Drivers/STM32F3xx_HAL_Driver/Src/stm32f3xx_hal_pcd.c ****   * @param  ep_addr endpoint address
1255:Drivers/STM32F3xx_HAL_Driver/Src/stm32f3xx_hal_pcd.c ****   * @retval HAL status
1256:Drivers/STM32F3xx_HAL_Driver/Src/stm32f3xx_hal_pcd.c ****   */
1257:Drivers/STM32F3xx_HAL_Driver/Src/stm32f3xx_hal_pcd.c **** HAL_StatusTypeDef HAL_PCD_EP_Flush(PCD_HandleTypeDef *hpcd, uint8_t ep_addr)
1258:Drivers/STM32F3xx_HAL_Driver/Src/stm32f3xx_hal_pcd.c **** { 
 2935              		.loc 1 1258 0
 2936              		.cfi_startproc
 2937              		@ args = 0, pretend = 0, frame = 0
 2938              		@ frame_needed = 0, uses_anonymous_args = 0
 2939              		@ link register save eliminated.
 2940              	.LVL292:
1259:Drivers/STM32F3xx_HAL_Driver/Src/stm32f3xx_hal_pcd.c ****   return HAL_OK;
1260:Drivers/STM32F3xx_HAL_Driver/Src/stm32f3xx_hal_pcd.c **** }
 2941              		.loc 1 1260 0
 2942 0000 0020     		movs	r0, #0
 2943              	.LVL293:
 2944 0002 7047     		bx	lr
 2945              		.cfi_endproc
 2946              	.LFE153:
 2948              		.section	.text.HAL_PCD_ActivateRemoteWakeup,"ax",%progbits
 2949              		.align	2
 2950              		.global	HAL_PCD_ActivateRemoteWakeup
 2951              		.thumb
 2952              		.thumb_func
 2954              	HAL_PCD_ActivateRemoteWakeup:
 2955              	.LFB154:
1261:Drivers/STM32F3xx_HAL_Driver/Src/stm32f3xx_hal_pcd.c **** 
1262:Drivers/STM32F3xx_HAL_Driver/Src/stm32f3xx_hal_pcd.c **** /**
1263:Drivers/STM32F3xx_HAL_Driver/Src/stm32f3xx_hal_pcd.c ****   * @brief  HAL_PCD_ActivateRemoteWakeup : active remote wakeup signalling
1264:Drivers/STM32F3xx_HAL_Driver/Src/stm32f3xx_hal_pcd.c ****   * @param  hpcd PCD handle
1265:Drivers/STM32F3xx_HAL_Driver/Src/stm32f3xx_hal_pcd.c ****   * @retval HAL status
1266:Drivers/STM32F3xx_HAL_Driver/Src/stm32f3xx_hal_pcd.c ****   */
1267:Drivers/STM32F3xx_HAL_Driver/Src/stm32f3xx_hal_pcd.c **** HAL_StatusTypeDef HAL_PCD_ActivateRemoteWakeup(PCD_HandleTypeDef *hpcd)
1268:Drivers/STM32F3xx_HAL_Driver/Src/stm32f3xx_hal_pcd.c **** {
 2956              		.loc 1 1268 0
 2957              		.cfi_startproc
 2958              		@ args = 0, pretend = 0, frame = 0
 2959              		@ frame_needed = 0, uses_anonymous_args = 0
 2960              		@ link register save eliminated.
 2961              	.LVL294:
1269:Drivers/STM32F3xx_HAL_Driver/Src/stm32f3xx_hal_pcd.c ****   hpcd->Instance->CNTR |= USB_CNTR_RESUME;
 2962              		.loc 1 1269 0
 2963 0000 0268     		ldr	r2, [r0]
 2964 0002 B2F84030 		ldrh	r3, [r2, #64]
 2965 0006 9BB2     		uxth	r3, r3
ARM GAS  /tmp/ccwKMGBI.s 			page 77


 2966 0008 43F01003 		orr	r3, r3, #16
 2967 000c A2F84030 		strh	r3, [r2, #64]	@ movhi
1270:Drivers/STM32F3xx_HAL_Driver/Src/stm32f3xx_hal_pcd.c ****   return HAL_OK;
1271:Drivers/STM32F3xx_HAL_Driver/Src/stm32f3xx_hal_pcd.c **** }
 2968              		.loc 1 1271 0
 2969 0010 0020     		movs	r0, #0
 2970              	.LVL295:
 2971 0012 7047     		bx	lr
 2972              		.cfi_endproc
 2973              	.LFE154:
 2975              		.section	.text.HAL_PCD_DeActivateRemoteWakeup,"ax",%progbits
 2976              		.align	2
 2977              		.global	HAL_PCD_DeActivateRemoteWakeup
 2978              		.thumb
 2979              		.thumb_func
 2981              	HAL_PCD_DeActivateRemoteWakeup:
 2982              	.LFB155:
1272:Drivers/STM32F3xx_HAL_Driver/Src/stm32f3xx_hal_pcd.c **** 
1273:Drivers/STM32F3xx_HAL_Driver/Src/stm32f3xx_hal_pcd.c **** /**
1274:Drivers/STM32F3xx_HAL_Driver/Src/stm32f3xx_hal_pcd.c ****   * @brief  HAL_PCD_DeActivateRemoteWakeup : de-active remote wakeup signalling
1275:Drivers/STM32F3xx_HAL_Driver/Src/stm32f3xx_hal_pcd.c ****   * @param  hpcd PCD handle
1276:Drivers/STM32F3xx_HAL_Driver/Src/stm32f3xx_hal_pcd.c ****   * @retval HAL status
1277:Drivers/STM32F3xx_HAL_Driver/Src/stm32f3xx_hal_pcd.c ****   */
1278:Drivers/STM32F3xx_HAL_Driver/Src/stm32f3xx_hal_pcd.c **** HAL_StatusTypeDef HAL_PCD_DeActivateRemoteWakeup(PCD_HandleTypeDef *hpcd)
1279:Drivers/STM32F3xx_HAL_Driver/Src/stm32f3xx_hal_pcd.c **** {
 2983              		.loc 1 1279 0
 2984              		.cfi_startproc
 2985              		@ args = 0, pretend = 0, frame = 0
 2986              		@ frame_needed = 0, uses_anonymous_args = 0
 2987              		@ link register save eliminated.
 2988              	.LVL296:
1280:Drivers/STM32F3xx_HAL_Driver/Src/stm32f3xx_hal_pcd.c ****   hpcd->Instance->CNTR &=~((uint32_t)USB_CNTR_RESUME);
 2989              		.loc 1 1280 0
 2990 0000 0268     		ldr	r2, [r0]
 2991 0002 B2F84030 		ldrh	r3, [r2, #64]
 2992 0006 9BB2     		uxth	r3, r3
 2993 0008 23F01003 		bic	r3, r3, #16
 2994 000c 9BB2     		uxth	r3, r3
 2995 000e A2F84030 		strh	r3, [r2, #64]	@ movhi
1281:Drivers/STM32F3xx_HAL_Driver/Src/stm32f3xx_hal_pcd.c ****   return HAL_OK;
1282:Drivers/STM32F3xx_HAL_Driver/Src/stm32f3xx_hal_pcd.c **** }
 2996              		.loc 1 1282 0
 2997 0012 0020     		movs	r0, #0
 2998              	.LVL297:
 2999 0014 7047     		bx	lr
 3000              		.cfi_endproc
 3001              	.LFE155:
 3003 0016 00BF     		.section	.text.HAL_PCD_GetState,"ax",%progbits
 3004              		.align	2
 3005              		.global	HAL_PCD_GetState
 3006              		.thumb
 3007              		.thumb_func
 3009              	HAL_PCD_GetState:
 3010              	.LFB156:
1283:Drivers/STM32F3xx_HAL_Driver/Src/stm32f3xx_hal_pcd.c **** 
1284:Drivers/STM32F3xx_HAL_Driver/Src/stm32f3xx_hal_pcd.c **** /**
1285:Drivers/STM32F3xx_HAL_Driver/Src/stm32f3xx_hal_pcd.c ****   * @}
ARM GAS  /tmp/ccwKMGBI.s 			page 78


1286:Drivers/STM32F3xx_HAL_Driver/Src/stm32f3xx_hal_pcd.c ****   */
1287:Drivers/STM32F3xx_HAL_Driver/Src/stm32f3xx_hal_pcd.c ****   
1288:Drivers/STM32F3xx_HAL_Driver/Src/stm32f3xx_hal_pcd.c **** /** @defgroup PCD_Exported_Functions_Group4 Peripheral State functions 
1289:Drivers/STM32F3xx_HAL_Driver/Src/stm32f3xx_hal_pcd.c ****  *  @brief   Peripheral State functions 
1290:Drivers/STM32F3xx_HAL_Driver/Src/stm32f3xx_hal_pcd.c ****  *
1291:Drivers/STM32F3xx_HAL_Driver/Src/stm32f3xx_hal_pcd.c **** @verbatim   
1292:Drivers/STM32F3xx_HAL_Driver/Src/stm32f3xx_hal_pcd.c ****  ===============================================================================
1293:Drivers/STM32F3xx_HAL_Driver/Src/stm32f3xx_hal_pcd.c ****                       ##### Peripheral State functions #####
1294:Drivers/STM32F3xx_HAL_Driver/Src/stm32f3xx_hal_pcd.c ****  ===============================================================================  
1295:Drivers/STM32F3xx_HAL_Driver/Src/stm32f3xx_hal_pcd.c ****     [..]
1296:Drivers/STM32F3xx_HAL_Driver/Src/stm32f3xx_hal_pcd.c ****     This subsection permits to get in run-time the status of the peripheral 
1297:Drivers/STM32F3xx_HAL_Driver/Src/stm32f3xx_hal_pcd.c ****     and the data flow.
1298:Drivers/STM32F3xx_HAL_Driver/Src/stm32f3xx_hal_pcd.c **** 
1299:Drivers/STM32F3xx_HAL_Driver/Src/stm32f3xx_hal_pcd.c **** @endverbatim
1300:Drivers/STM32F3xx_HAL_Driver/Src/stm32f3xx_hal_pcd.c ****   * @{
1301:Drivers/STM32F3xx_HAL_Driver/Src/stm32f3xx_hal_pcd.c ****   */
1302:Drivers/STM32F3xx_HAL_Driver/Src/stm32f3xx_hal_pcd.c **** 
1303:Drivers/STM32F3xx_HAL_Driver/Src/stm32f3xx_hal_pcd.c **** /**
1304:Drivers/STM32F3xx_HAL_Driver/Src/stm32f3xx_hal_pcd.c ****   * @brief  Return the PCD state
1305:Drivers/STM32F3xx_HAL_Driver/Src/stm32f3xx_hal_pcd.c ****   * @param  hpcd PCD handle
1306:Drivers/STM32F3xx_HAL_Driver/Src/stm32f3xx_hal_pcd.c ****   * @retval HAL state
1307:Drivers/STM32F3xx_HAL_Driver/Src/stm32f3xx_hal_pcd.c ****   */
1308:Drivers/STM32F3xx_HAL_Driver/Src/stm32f3xx_hal_pcd.c **** PCD_StateTypeDef HAL_PCD_GetState(PCD_HandleTypeDef *hpcd)
1309:Drivers/STM32F3xx_HAL_Driver/Src/stm32f3xx_hal_pcd.c **** {
 3011              		.loc 1 1309 0
 3012              		.cfi_startproc
 3013              		@ args = 0, pretend = 0, frame = 0
 3014              		@ frame_needed = 0, uses_anonymous_args = 0
 3015              		@ link register save eliminated.
 3016              	.LVL298:
1310:Drivers/STM32F3xx_HAL_Driver/Src/stm32f3xx_hal_pcd.c ****   return hpcd->State;
 3017              		.loc 1 1310 0
 3018 0000 90F87103 		ldrb	r0, [r0, #881]	@ zero_extendqisi2
 3019              	.LVL299:
1311:Drivers/STM32F3xx_HAL_Driver/Src/stm32f3xx_hal_pcd.c **** }
 3020              		.loc 1 1311 0
 3021 0004 7047     		bx	lr
 3022              		.cfi_endproc
 3023              	.LFE156:
 3025 0006 00BF     		.text
 3026              	.Letext0:
 3027              		.file 2 "/opt/gcc-arm-none-eabi-5_4-2016q3/arm-none-eabi/include/machine/_default_types.h"
 3028              		.file 3 "/opt/gcc-arm-none-eabi-5_4-2016q3/arm-none-eabi/include/sys/_stdint.h"
 3029              		.file 4 "Drivers/CMSIS/Device/ST/STM32F3xx/Include/stm32f303xc.h"
 3030              		.file 5 "Drivers/STM32F3xx_HAL_Driver/Inc/stm32f3xx_hal_def.h"
 3031              		.file 6 "Drivers/STM32F3xx_HAL_Driver/Inc/stm32f3xx_hal_pcd.h"
 3032              		.file 7 "Drivers/STM32F3xx_HAL_Driver/Inc/stm32f3xx_hal_pcd_ex.h"
 3033              		.file 8 "Drivers/CMSIS/Include/core_cm4.h"
ARM GAS  /tmp/ccwKMGBI.s 			page 79

